	.file	"test.cpp"
	.text
	.section	.text._ZSt23__is_constant_evaluatedv,"axG",@progbits,_ZSt23__is_constant_evaluatedv,comdat
	.weak	_ZSt23__is_constant_evaluatedv
	.type	_ZSt23__is_constant_evaluatedv, @function
_ZSt23__is_constant_evaluatedv:
.LFB1:
	.cfi_startproc
	pushq	%rbp
	.cfi_def_cfa_offset 16
	.cfi_offset 6, -16
	movq	%rsp, %rbp
	.cfi_def_cfa_register 6
	movl	$0, %eax
	popq	%rbp
	.cfi_def_cfa 7, 8
	ret
	.cfi_endproc
.LFE1:
	.size	_ZSt23__is_constant_evaluatedv, .-_ZSt23__is_constant_evaluatedv
	.section	.text._ZnwmPv,"axG",@progbits,_ZnwmPv,comdat
	.weak	_ZnwmPv
	.type	_ZnwmPv, @function
_ZnwmPv:
.LFB39:
	.cfi_startproc
	pushq	%rbp
	.cfi_def_cfa_offset 16
	.cfi_offset 6, -16
	movq	%rsp, %rbp
	.cfi_def_cfa_register 6
	movq	%rdi, -8(%rbp)
	movq	%rsi, -16(%rbp)
	movq	-16(%rbp), %rax
	popq	%rbp
	.cfi_def_cfa 7, 8
	ret
	.cfi_endproc
.LFE39:
	.size	_ZnwmPv, .-_ZnwmPv
	.section	.text._ZdlPvS_,"axG",@progbits,_ZdlPvS_,comdat
	.weak	_ZdlPvS_
	.type	_ZdlPvS_, @function
_ZdlPvS_:
.LFB41:
	.cfi_startproc
	pushq	%rbp
	.cfi_def_cfa_offset 16
	.cfi_offset 6, -16
	movq	%rsp, %rbp
	.cfi_def_cfa_register 6
	movq	%rdi, -8(%rbp)
	movq	%rsi, -16(%rbp)
	nop
	popq	%rbp
	.cfi_def_cfa 7, 8
	ret
	.cfi_endproc
.LFE41:
	.size	_ZdlPvS_, .-_ZdlPvS_
	.section	.text._ZSt21is_constant_evaluatedv,"axG",@progbits,_ZSt21is_constant_evaluatedv,comdat
	.weak	_ZSt21is_constant_evaluatedv
	.type	_ZSt21is_constant_evaluatedv, @function
_ZSt21is_constant_evaluatedv:
.LFB56:
	.cfi_startproc
	pushq	%rbp
	.cfi_def_cfa_offset 16
	.cfi_offset 6, -16
	movq	%rsp, %rbp
	.cfi_def_cfa_register 6
	movl	$0, %eax
	popq	%rbp
	.cfi_def_cfa 7, 8
	ret
	.cfi_endproc
.LFE56:
	.size	_ZSt21is_constant_evaluatedv, .-_ZSt21is_constant_evaluatedv
#APP
	.globl _ZSt21ios_base_library_initv
#NO_APP
	.section	.text._ZNSt9_Any_data9_M_accessEv,"axG",@progbits,_ZNSt9_Any_data9_M_accessEv,comdat
	.align 2
	.weak	_ZNSt9_Any_data9_M_accessEv
	.type	_ZNSt9_Any_data9_M_accessEv, @function
_ZNSt9_Any_data9_M_accessEv:
.LFB2466:
	.cfi_startproc
	pushq	%rbp
	.cfi_def_cfa_offset 16
	.cfi_offset 6, -16
	movq	%rsp, %rbp
	.cfi_def_cfa_register 6
	movq	%rdi, -8(%rbp)
	movq	-8(%rbp), %rax
	popq	%rbp
	.cfi_def_cfa 7, 8
	ret
	.cfi_endproc
.LFE2466:
	.size	_ZNSt9_Any_data9_M_accessEv, .-_ZNSt9_Any_data9_M_accessEv
	.section	.text._ZNKSt9_Any_data9_M_accessEv,"axG",@progbits,_ZNKSt9_Any_data9_M_accessEv,comdat
	.align 2
	.weak	_ZNKSt9_Any_data9_M_accessEv
	.type	_ZNKSt9_Any_data9_M_accessEv, @function
_ZNKSt9_Any_data9_M_accessEv:
.LFB2467:
	.cfi_startproc
	pushq	%rbp
	.cfi_def_cfa_offset 16
	.cfi_offset 6, -16
	movq	%rsp, %rbp
	.cfi_def_cfa_register 6
	movq	%rdi, -8(%rbp)
	movq	-8(%rbp), %rax
	popq	%rbp
	.cfi_def_cfa 7, 8
	ret
	.cfi_endproc
.LFE2467:
	.size	_ZNKSt9_Any_data9_M_accessEv, .-_ZNKSt9_Any_data9_M_accessEv
	.section	.text._ZNSt14_Function_baseD2Ev,"axG",@progbits,_ZNSt14_Function_baseD5Ev,comdat
	.align 2
	.weak	_ZNSt14_Function_baseD2Ev
	.type	_ZNSt14_Function_baseD2Ev, @function
_ZNSt14_Function_baseD2Ev:
.LFB2482:
	.cfi_startproc
	.cfi_personality 0x9b,DW.ref.__gxx_personality_v0
	.cfi_lsda 0x1b,.LLSDA2482
	pushq	%rbp
	.cfi_def_cfa_offset 16
	.cfi_offset 6, -16
	movq	%rsp, %rbp
	.cfi_def_cfa_register 6
	subq	$16, %rsp
	movq	%rdi, -8(%rbp)
	movq	-8(%rbp), %rax
	movq	16(%rax), %rax
	testq	%rax, %rax
	je	.L14
	movq	-8(%rbp), %rax
	movq	16(%rax), %r8
	movq	-8(%rbp), %rcx
	movq	-8(%rbp), %rax
	movl	$3, %edx
	movq	%rcx, %rsi
	movq	%rax, %rdi
	call	*%r8
.L14:
	nop
	leave
	.cfi_def_cfa 7, 8
	ret
	.cfi_endproc
.LFE2482:
	.globl	__gxx_personality_v0
	.section	.gcc_except_table._ZNSt14_Function_baseD2Ev,"aG",@progbits,_ZNSt14_Function_baseD5Ev,comdat
.LLSDA2482:
	.byte	0xff
	.byte	0xff
	.byte	0x1
	.uleb128 .LLSDACSE2482-.LLSDACSB2482
.LLSDACSB2482:
.LLSDACSE2482:
	.section	.text._ZNSt14_Function_baseD2Ev,"axG",@progbits,_ZNSt14_Function_baseD5Ev,comdat
	.size	_ZNSt14_Function_baseD2Ev, .-_ZNSt14_Function_baseD2Ev
	.weak	_ZNSt14_Function_baseD1Ev
	.set	_ZNSt14_Function_baseD1Ev,_ZNSt14_Function_baseD2Ev
	.section	.text._ZNKSt14_Function_base8_M_emptyEv,"axG",@progbits,_ZNKSt14_Function_base8_M_emptyEv,comdat
	.align 2
	.weak	_ZNKSt14_Function_base8_M_emptyEv
	.type	_ZNKSt14_Function_base8_M_emptyEv, @function
_ZNKSt14_Function_base8_M_emptyEv:
.LFB2484:
	.cfi_startproc
	pushq	%rbp
	.cfi_def_cfa_offset 16
	.cfi_offset 6, -16
	movq	%rsp, %rbp
	.cfi_def_cfa_register 6
	movq	%rdi, -8(%rbp)
	movq	-8(%rbp), %rax
	movq	16(%rax), %rax
	testq	%rax, %rax
	sete	%al
	popq	%rbp
	.cfi_def_cfa 7, 8
	ret
	.cfi_endproc
.LFE2484:
	.size	_ZNKSt14_Function_base8_M_emptyEv, .-_ZNKSt14_Function_base8_M_emptyEv
	.section	.text._ZSt3minImERKT_S2_S2_,"axG",@progbits,_ZSt3minImERKT_S2_S2_,comdat
	.weak	_ZSt3minImERKT_S2_S2_
	.type	_ZSt3minImERKT_S2_S2_, @function
_ZSt3minImERKT_S2_S2_:
.LFB2579:
	.cfi_startproc
	pushq	%rbp
	.cfi_def_cfa_offset 16
	.cfi_offset 6, -16
	movq	%rsp, %rbp
	.cfi_def_cfa_register 6
	movq	%rdi, -8(%rbp)
	movq	%rsi, -16(%rbp)
	movq	-16(%rbp), %rax
	movq	(%rax), %rdx
	movq	-8(%rbp), %rax
	movq	(%rax), %rax
	cmpq	%rax, %rdx
	jnb	.L18
	movq	-16(%rbp), %rax
	jmp	.L19
.L18:
	movq	-8(%rbp), %rax
.L19:
	popq	%rbp
	.cfi_def_cfa 7, 8
	ret
	.cfi_endproc
.LFE2579:
	.size	_ZSt3minImERKT_S2_S2_, .-_ZSt3minImERKT_S2_S2_
	.section	.text._ZNSt12_Vector_baseIiSaIiEE12_Vector_implD2Ev,"axG",@progbits,_ZNSt12_Vector_baseIiSaIiEE12_Vector_implD5Ev,comdat
	.align 2
	.weak	_ZNSt12_Vector_baseIiSaIiEE12_Vector_implD2Ev
	.type	_ZNSt12_Vector_baseIiSaIiEE12_Vector_implD2Ev, @function
_ZNSt12_Vector_baseIiSaIiEE12_Vector_implD2Ev:
.LFB3854:
	.cfi_startproc
	pushq	%rbp
	.cfi_def_cfa_offset 16
	.cfi_offset 6, -16
	movq	%rsp, %rbp
	.cfi_def_cfa_register 6
	movq	%rdi, -24(%rbp)
	movq	-24(%rbp), %rax
	movq	%rax, -8(%rbp)
	nop
	nop
	popq	%rbp
	.cfi_def_cfa 7, 8
	ret
	.cfi_endproc
.LFE3854:
	.size	_ZNSt12_Vector_baseIiSaIiEE12_Vector_implD2Ev, .-_ZNSt12_Vector_baseIiSaIiEE12_Vector_implD2Ev
	.weak	_ZNSt12_Vector_baseIiSaIiEE12_Vector_implD1Ev
	.set	_ZNSt12_Vector_baseIiSaIiEE12_Vector_implD1Ev,_ZNSt12_Vector_baseIiSaIiEE12_Vector_implD2Ev
	.section	.text._ZNSt12_Vector_baseIiSaIiEE17_Vector_impl_dataC2Ev,"axG",@progbits,_ZNSt12_Vector_baseIiSaIiEE17_Vector_impl_dataC2Ev,comdat
	.align 2
	.weak	_ZNSt12_Vector_baseIiSaIiEE17_Vector_impl_dataC2Ev
	.type	_ZNSt12_Vector_baseIiSaIiEE17_Vector_impl_dataC2Ev, @function
_ZNSt12_Vector_baseIiSaIiEE17_Vector_impl_dataC2Ev:
.LFB3870:
	.cfi_startproc
	pushq	%rbp
	.cfi_def_cfa_offset 16
	.cfi_offset 6, -16
	movq	%rsp, %rbp
	.cfi_def_cfa_register 6
	movq	%rdi, -8(%rbp)
	movq	-8(%rbp), %rax
	movq	$0, (%rax)
	movq	-8(%rbp), %rax
	movq	$0, 8(%rax)
	movq	-8(%rbp), %rax
	movq	$0, 16(%rax)
	nop
	popq	%rbp
	.cfi_def_cfa 7, 8
	ret
	.cfi_endproc
.LFE3870:
	.size	_ZNSt12_Vector_baseIiSaIiEE17_Vector_impl_dataC2Ev, .-_ZNSt12_Vector_baseIiSaIiEE17_Vector_impl_dataC2Ev
	.section	.text._ZNSt12_Vector_baseIiSaIiEEC2EOS1_,"axG",@progbits,_ZNSt12_Vector_baseIiSaIiEEC5EOS1_,comdat
	.align 2
	.weak	_ZNSt12_Vector_baseIiSaIiEEC2EOS1_
	.type	_ZNSt12_Vector_baseIiSaIiEEC2EOS1_, @function
_ZNSt12_Vector_baseIiSaIiEEC2EOS1_:
.LFB3875:
	.cfi_startproc
	pushq	%rbp
	.cfi_def_cfa_offset 16
	.cfi_offset 6, -16
	movq	%rsp, %rbp
	.cfi_def_cfa_register 6
	subq	$16, %rsp
	movq	%rdi, -8(%rbp)
	movq	%rsi, -16(%rbp)
	movq	-8(%rbp), %rax
	movq	-16(%rbp), %rdx
	movq	%rdx, %rsi
	movq	%rax, %rdi
	call	_ZNSt12_Vector_baseIiSaIiEE12_Vector_implC1EOS2_
	nop
	leave
	.cfi_def_cfa 7, 8
	ret
	.cfi_endproc
.LFE3875:
	.size	_ZNSt12_Vector_baseIiSaIiEEC2EOS1_, .-_ZNSt12_Vector_baseIiSaIiEEC2EOS1_
	.weak	_ZNSt12_Vector_baseIiSaIiEEC1EOS1_
	.set	_ZNSt12_Vector_baseIiSaIiEEC1EOS1_,_ZNSt12_Vector_baseIiSaIiEEC2EOS1_
	.section	.text._ZNSt6vectorIiSaIiEEC2EOS1_,"axG",@progbits,_ZNSt6vectorIiSaIiEEC5EOS1_,comdat
	.align 2
	.weak	_ZNSt6vectorIiSaIiEEC2EOS1_
	.type	_ZNSt6vectorIiSaIiEEC2EOS1_, @function
_ZNSt6vectorIiSaIiEEC2EOS1_:
.LFB3877:
	.cfi_startproc
	pushq	%rbp
	.cfi_def_cfa_offset 16
	.cfi_offset 6, -16
	movq	%rsp, %rbp
	.cfi_def_cfa_register 6
	subq	$16, %rsp
	movq	%rdi, -8(%rbp)
	movq	%rsi, -16(%rbp)
	movq	-8(%rbp), %rax
	movq	-16(%rbp), %rdx
	movq	%rdx, %rsi
	movq	%rax, %rdi
	call	_ZNSt12_Vector_baseIiSaIiEEC2EOS1_
	nop
	leave
	.cfi_def_cfa 7, 8
	ret
	.cfi_endproc
.LFE3877:
	.size	_ZNSt6vectorIiSaIiEEC2EOS1_, .-_ZNSt6vectorIiSaIiEEC2EOS1_
	.weak	_ZNSt6vectorIiSaIiEEC1EOS1_
	.set	_ZNSt6vectorIiSaIiEEC1EOS1_,_ZNSt6vectorIiSaIiEEC2EOS1_
	.text
	.align 2
	.type	_ZZN11fp_specific7int_mapESt8functionIFiiEESt6vectorIiSaIiEEENKUlS5_iE_clES5_i, @function
_ZZN11fp_specific7int_mapESt8functionIFiiEESt6vectorIiSaIiEEENKUlS5_iE_clES5_i:
.LFB3872:
	.cfi_startproc
	pushq	%rbp
	.cfi_def_cfa_offset 16
	.cfi_offset 6, -16
	movq	%rsp, %rbp
	.cfi_def_cfa_register 6
	subq	$48, %rsp
	movq	%rdi, -24(%rbp)
	movq	%rsi, -32(%rbp)
	movq	%rdx, -40(%rbp)
	movl	%ecx, -44(%rbp)
	movq	%fs:40, %rax
	movq	%rax, -8(%rbp)
	xorl	%eax, %eax
	movq	-32(%rbp), %rax
	movl	-44(%rbp), %edx
	movl	%edx, %esi
	movq	%rax, %rdi
	call	_ZNKSt8functionIFiiEEclEi
	movl	%eax, -12(%rbp)
	leaq	-12(%rbp), %rdx
	movq	-40(%rbp), %rax
	movq	%rdx, %rsi
	movq	%rax, %rdi
	call	_ZNSt6vectorIiSaIiEE9push_backEOi
	movq	-40(%rbp), %rdx
	movq	-24(%rbp), %rax
	movq	%rdx, %rsi
	movq	%rax, %rdi
	call	_ZNSt6vectorIiSaIiEEC1EOS1_
	movq	-8(%rbp), %rax
	subq	%fs:40, %rax
	je	.L26
	call	__stack_chk_fail@PLT
.L26:
	movq	-24(%rbp), %rax
	leave
	.cfi_def_cfa 7, 8
	ret
	.cfi_endproc
.LFE3872:
	.size	_ZZN11fp_specific7int_mapESt8functionIFiiEESt6vectorIiSaIiEEENKUlS5_iE_clES5_i, .-_ZZN11fp_specific7int_mapESt8functionIFiiEESt6vectorIiSaIiEEENKUlS5_iE_clES5_i
	.section	.text._ZNSt8functionIFiiEED2Ev,"axG",@progbits,_ZNSt8functionIFiiEED5Ev,comdat
	.align 2
	.weak	_ZNSt8functionIFiiEED2Ev
	.type	_ZNSt8functionIFiiEED2Ev, @function
_ZNSt8functionIFiiEED2Ev:
.LFB3880:
	.cfi_startproc
	pushq	%rbp
	.cfi_def_cfa_offset 16
	.cfi_offset 6, -16
	movq	%rsp, %rbp
	.cfi_def_cfa_register 6
	subq	$16, %rsp
	movq	%rdi, -8(%rbp)
	movq	-8(%rbp), %rax
	movq	%rax, %rdi
	call	_ZNSt14_Function_baseD2Ev
	nop
	leave
	.cfi_def_cfa 7, 8
	ret
	.cfi_endproc
.LFE3880:
	.size	_ZNSt8functionIFiiEED2Ev, .-_ZNSt8functionIFiiEED2Ev
	.weak	_ZNSt8functionIFiiEED1Ev
	.set	_ZNSt8functionIFiiEED1Ev,_ZNSt8functionIFiiEED2Ev
	.text
	.align 2
	.type	_ZZN11fp_specific7int_mapESt8functionIFiiEESt6vectorIiSaIiEEENUlS5_iE_D2Ev, @function
_ZZN11fp_specific7int_mapESt8functionIFiiEESt6vectorIiSaIiEEENUlS5_iE_D2Ev:
.LFB3883:
	.cfi_startproc
	pushq	%rbp
	.cfi_def_cfa_offset 16
	.cfi_offset 6, -16
	movq	%rsp, %rbp
	.cfi_def_cfa_register 6
	subq	$16, %rsp
	movq	%rdi, -8(%rbp)
	movq	-8(%rbp), %rax
	movq	%rax, %rdi
	call	_ZNSt8functionIFiiEED1Ev
	nop
	leave
	.cfi_def_cfa 7, 8
	ret
	.cfi_endproc
.LFE3883:
	.size	_ZZN11fp_specific7int_mapESt8functionIFiiEESt6vectorIiSaIiEEENUlS5_iE_D2Ev, .-_ZZN11fp_specific7int_mapESt8functionIFiiEESt6vectorIiSaIiEEENUlS5_iE_D2Ev
	.set	_ZZN11fp_specific7int_mapESt8functionIFiiEESt6vectorIiSaIiEEENUlS5_iE_D1Ev,_ZZN11fp_specific7int_mapESt8functionIFiiEESt6vectorIiSaIiEEENUlS5_iE_D2Ev
	.globl	_ZN11fp_specific7int_mapESt8functionIFiiEESt6vectorIiSaIiEE
	.type	_ZN11fp_specific7int_mapESt8functionIFiiEESt6vectorIiSaIiEE, @function
_ZN11fp_specific7int_mapESt8functionIFiiEESt6vectorIiSaIiEE:
.LFB3849:
	.cfi_startproc
	.cfi_personality 0x9b,DW.ref.__gxx_personality_v0
	.cfi_lsda 0x1b,.LLSDA3849
	pushq	%rbp
	.cfi_def_cfa_offset 16
	.cfi_offset 6, -16
	movq	%rsp, %rbp
	.cfi_def_cfa_register 6
	pushq	%rbx
	subq	$184, %rsp
	.cfi_offset 3, -24
	movq	%rdi, -168(%rbp)
	movq	%rsi, -176(%rbp)
	movq	%rdx, -184(%rbp)
	movq	%fs:40, %rax
	movq	%rax, -24(%rbp)
	xorl	%eax, %eax
	pxor	%xmm0, %xmm0
	movaps	%xmm0, -160(%rbp)
	movq	%xmm0, -144(%rbp)
	leaq	-160(%rbp), %rdx
	leaq	-96(%rbp), %rax
	movq	%rdx, %rsi
	movq	%rax, %rdi
.LEHB0:
	call	_ZNSt6vectorIiSaIiEEC1ERKS1_
.LEHE0:
	movq	-184(%rbp), %rdx
	leaq	-128(%rbp), %rax
	movq	%rdx, %rsi
	movq	%rax, %rdi
.LEHB1:
	call	_ZNSt6vectorIiSaIiEEC1ERKS1_
.LEHE1:
	movq	-176(%rbp), %rdx
	leaq	-64(%rbp), %rax
	movq	%rdx, %rsi
	movq	%rax, %rdi
.LEHB2:
	call	_ZNSt8functionIFiiEEC1ERKS1_
.LEHE2:
	movq	-168(%rbp), %rax
	leaq	-96(%rbp), %rcx
	leaq	-128(%rbp), %rdx
	leaq	-64(%rbp), %rsi
	movq	%rax, %rdi
.LEHB3:
	call	_ZN2fp6reduceIZN11fp_specific7int_mapESt8functionIFiiEESt6vectorIiSaIiEEEUlS7_iE_S7_S7_EET1_T_T0_S9_
.LEHE3:
	nop
	leaq	-64(%rbp), %rax
	movq	%rax, %rdi
	call	_ZZN11fp_specific7int_mapESt8functionIFiiEESt6vectorIiSaIiEEENUlS5_iE_D1Ev
	leaq	-128(%rbp), %rax
	movq	%rax, %rdi
	call	_ZNSt6vectorIiSaIiEED1Ev
	leaq	-96(%rbp), %rax
	movq	%rax, %rdi
	call	_ZNSt6vectorIiSaIiEED1Ev
	leaq	-160(%rbp), %rax
	movq	%rax, %rdi
	call	_ZNSt6vectorIiSaIiEED1Ev
	nop
	movq	-24(%rbp), %rax
	subq	%fs:40, %rax
	je	.L36
	jmp	.L41
.L40:
	movq	%rax, %rbx
	leaq	-64(%rbp), %rax
	movq	%rax, %rdi
	call	_ZZN11fp_specific7int_mapESt8functionIFiiEESt6vectorIiSaIiEEENUlS5_iE_D1Ev
	jmp	.L32
.L39:
	movq	%rax, %rbx
.L32:
	leaq	-128(%rbp), %rax
	movq	%rax, %rdi
	call	_ZNSt6vectorIiSaIiEED1Ev
	jmp	.L33
.L38:
	movq	%rax, %rbx
.L33:
	leaq	-96(%rbp), %rax
	movq	%rax, %rdi
	call	_ZNSt6vectorIiSaIiEED1Ev
	jmp	.L34
.L37:
	movq	%rax, %rbx
.L34:
	leaq	-160(%rbp), %rax
	movq	%rax, %rdi
	call	_ZNSt6vectorIiSaIiEED1Ev
	movq	%rbx, %rax
	movq	-24(%rbp), %rdx
	subq	%fs:40, %rdx
	je	.L35
	call	__stack_chk_fail@PLT
.L35:
	movq	%rax, %rdi
.LEHB4:
	call	_Unwind_Resume@PLT
.LEHE4:
.L41:
	call	__stack_chk_fail@PLT
.L36:
	movq	-168(%rbp), %rax
	movq	-8(%rbp), %rbx
	leave
	.cfi_def_cfa 7, 8
	ret
	.cfi_endproc
.LFE3849:
	.section	.gcc_except_table,"a",@progbits
.LLSDA3849:
	.byte	0xff
	.byte	0xff
	.byte	0x1
	.uleb128 .LLSDACSE3849-.LLSDACSB3849
.LLSDACSB3849:
	.uleb128 .LEHB0-.LFB3849
	.uleb128 .LEHE0-.LEHB0
	.uleb128 .L37-.LFB3849
	.uleb128 0
	.uleb128 .LEHB1-.LFB3849
	.uleb128 .LEHE1-.LEHB1
	.uleb128 .L38-.LFB3849
	.uleb128 0
	.uleb128 .LEHB2-.LFB3849
	.uleb128 .LEHE2-.LEHB2
	.uleb128 .L39-.LFB3849
	.uleb128 0
	.uleb128 .LEHB3-.LFB3849
	.uleb128 .LEHE3-.LEHB3
	.uleb128 .L40-.LFB3849
	.uleb128 0
	.uleb128 .LEHB4-.LFB3849
	.uleb128 .LEHE4-.LEHB4
	.uleb128 0
	.uleb128 0
.LLSDACSE3849:
	.text
	.size	_ZN11fp_specific7int_mapESt8functionIFiiEESt6vectorIiSaIiEE, .-_ZN11fp_specific7int_mapESt8functionIFiiEESt6vectorIiSaIiEE
	.section	.text._ZNSt12_Vector_baseIlSaIlEE12_Vector_implD2Ev,"axG",@progbits,_ZNSt12_Vector_baseIlSaIlEE12_Vector_implD5Ev,comdat
	.align 2
	.weak	_ZNSt12_Vector_baseIlSaIlEE12_Vector_implD2Ev
	.type	_ZNSt12_Vector_baseIlSaIlEE12_Vector_implD2Ev, @function
_ZNSt12_Vector_baseIlSaIlEE12_Vector_implD2Ev:
.LFB3890:
	.cfi_startproc
	pushq	%rbp
	.cfi_def_cfa_offset 16
	.cfi_offset 6, -16
	movq	%rsp, %rbp
	.cfi_def_cfa_register 6
	movq	%rdi, -24(%rbp)
	movq	-24(%rbp), %rax
	movq	%rax, -8(%rbp)
	nop
	nop
	popq	%rbp
	.cfi_def_cfa 7, 8
	ret
	.cfi_endproc
.LFE3890:
	.size	_ZNSt12_Vector_baseIlSaIlEE12_Vector_implD2Ev, .-_ZNSt12_Vector_baseIlSaIlEE12_Vector_implD2Ev
	.weak	_ZNSt12_Vector_baseIlSaIlEE12_Vector_implD1Ev
	.set	_ZNSt12_Vector_baseIlSaIlEE12_Vector_implD1Ev,_ZNSt12_Vector_baseIlSaIlEE12_Vector_implD2Ev
	.section	.text._ZNSt12_Vector_baseIlSaIlEE17_Vector_impl_dataC2Ev,"axG",@progbits,_ZNSt12_Vector_baseIlSaIlEE17_Vector_impl_dataC2Ev,comdat
	.align 2
	.weak	_ZNSt12_Vector_baseIlSaIlEE17_Vector_impl_dataC2Ev
	.type	_ZNSt12_Vector_baseIlSaIlEE17_Vector_impl_dataC2Ev, @function
_ZNSt12_Vector_baseIlSaIlEE17_Vector_impl_dataC2Ev:
.LFB3906:
	.cfi_startproc
	pushq	%rbp
	.cfi_def_cfa_offset 16
	.cfi_offset 6, -16
	movq	%rsp, %rbp
	.cfi_def_cfa_register 6
	movq	%rdi, -8(%rbp)
	movq	-8(%rbp), %rax
	movq	$0, (%rax)
	movq	-8(%rbp), %rax
	movq	$0, 8(%rax)
	movq	-8(%rbp), %rax
	movq	$0, 16(%rax)
	nop
	popq	%rbp
	.cfi_def_cfa 7, 8
	ret
	.cfi_endproc
.LFE3906:
	.size	_ZNSt12_Vector_baseIlSaIlEE17_Vector_impl_dataC2Ev, .-_ZNSt12_Vector_baseIlSaIlEE17_Vector_impl_dataC2Ev
	.section	.text._ZNSt12_Vector_baseIlSaIlEEC2EOS1_,"axG",@progbits,_ZNSt12_Vector_baseIlSaIlEEC5EOS1_,comdat
	.align 2
	.weak	_ZNSt12_Vector_baseIlSaIlEEC2EOS1_
	.type	_ZNSt12_Vector_baseIlSaIlEEC2EOS1_, @function
_ZNSt12_Vector_baseIlSaIlEEC2EOS1_:
.LFB3911:
	.cfi_startproc
	pushq	%rbp
	.cfi_def_cfa_offset 16
	.cfi_offset 6, -16
	movq	%rsp, %rbp
	.cfi_def_cfa_register 6
	subq	$16, %rsp
	movq	%rdi, -8(%rbp)
	movq	%rsi, -16(%rbp)
	movq	-8(%rbp), %rax
	movq	-16(%rbp), %rdx
	movq	%rdx, %rsi
	movq	%rax, %rdi
	call	_ZNSt12_Vector_baseIlSaIlEE12_Vector_implC1EOS2_
	nop
	leave
	.cfi_def_cfa 7, 8
	ret
	.cfi_endproc
.LFE3911:
	.size	_ZNSt12_Vector_baseIlSaIlEEC2EOS1_, .-_ZNSt12_Vector_baseIlSaIlEEC2EOS1_
	.weak	_ZNSt12_Vector_baseIlSaIlEEC1EOS1_
	.set	_ZNSt12_Vector_baseIlSaIlEEC1EOS1_,_ZNSt12_Vector_baseIlSaIlEEC2EOS1_
	.section	.text._ZNSt6vectorIlSaIlEEC2EOS1_,"axG",@progbits,_ZNSt6vectorIlSaIlEEC5EOS1_,comdat
	.align 2
	.weak	_ZNSt6vectorIlSaIlEEC2EOS1_
	.type	_ZNSt6vectorIlSaIlEEC2EOS1_, @function
_ZNSt6vectorIlSaIlEEC2EOS1_:
.LFB3913:
	.cfi_startproc
	pushq	%rbp
	.cfi_def_cfa_offset 16
	.cfi_offset 6, -16
	movq	%rsp, %rbp
	.cfi_def_cfa_register 6
	subq	$16, %rsp
	movq	%rdi, -8(%rbp)
	movq	%rsi, -16(%rbp)
	movq	-8(%rbp), %rax
	movq	-16(%rbp), %rdx
	movq	%rdx, %rsi
	movq	%rax, %rdi
	call	_ZNSt12_Vector_baseIlSaIlEEC2EOS1_
	nop
	leave
	.cfi_def_cfa 7, 8
	ret
	.cfi_endproc
.LFE3913:
	.size	_ZNSt6vectorIlSaIlEEC2EOS1_, .-_ZNSt6vectorIlSaIlEEC2EOS1_
	.weak	_ZNSt6vectorIlSaIlEEC1EOS1_
	.set	_ZNSt6vectorIlSaIlEEC1EOS1_,_ZNSt6vectorIlSaIlEEC2EOS1_
	.text
	.align 2
	.type	_ZZN11fp_specific8long_mapESt8functionIFllEESt6vectorIlSaIlEEENKUlS5_lE_clES5_l, @function
_ZZN11fp_specific8long_mapESt8functionIFllEESt6vectorIlSaIlEEENKUlS5_lE_clES5_l:
.LFB3908:
	.cfi_startproc
	pushq	%rbp
	.cfi_def_cfa_offset 16
	.cfi_offset 6, -16
	movq	%rsp, %rbp
	.cfi_def_cfa_register 6
	subq	$48, %rsp
	movq	%rdi, -24(%rbp)
	movq	%rsi, -32(%rbp)
	movq	%rdx, -40(%rbp)
	movq	%rcx, -48(%rbp)
	movq	%fs:40, %rax
	movq	%rax, -8(%rbp)
	xorl	%eax, %eax
	movq	-32(%rbp), %rax
	movq	-48(%rbp), %rdx
	movq	%rdx, %rsi
	movq	%rax, %rdi
	call	_ZNKSt8functionIFllEEclEl
	movq	%rax, -16(%rbp)
	leaq	-16(%rbp), %rdx
	movq	-40(%rbp), %rax
	movq	%rdx, %rsi
	movq	%rax, %rdi
	call	_ZNSt6vectorIlSaIlEE9push_backEOl
	movq	-40(%rbp), %rdx
	movq	-24(%rbp), %rax
	movq	%rdx, %rsi
	movq	%rax, %rdi
	call	_ZNSt6vectorIlSaIlEEC1EOS1_
	movq	-8(%rbp), %rax
	subq	%fs:40, %rax
	je	.L48
	call	__stack_chk_fail@PLT
.L48:
	movq	-24(%rbp), %rax
	leave
	.cfi_def_cfa 7, 8
	ret
	.cfi_endproc
.LFE3908:
	.size	_ZZN11fp_specific8long_mapESt8functionIFllEESt6vectorIlSaIlEEENKUlS5_lE_clES5_l, .-_ZZN11fp_specific8long_mapESt8functionIFllEESt6vectorIlSaIlEEENKUlS5_lE_clES5_l
	.section	.text._ZNSt8functionIFllEED2Ev,"axG",@progbits,_ZNSt8functionIFllEED5Ev,comdat
	.align 2
	.weak	_ZNSt8functionIFllEED2Ev
	.type	_ZNSt8functionIFllEED2Ev, @function
_ZNSt8functionIFllEED2Ev:
.LFB3916:
	.cfi_startproc
	pushq	%rbp
	.cfi_def_cfa_offset 16
	.cfi_offset 6, -16
	movq	%rsp, %rbp
	.cfi_def_cfa_register 6
	subq	$16, %rsp
	movq	%rdi, -8(%rbp)
	movq	-8(%rbp), %rax
	movq	%rax, %rdi
	call	_ZNSt14_Function_baseD2Ev
	nop
	leave
	.cfi_def_cfa 7, 8
	ret
	.cfi_endproc
.LFE3916:
	.size	_ZNSt8functionIFllEED2Ev, .-_ZNSt8functionIFllEED2Ev
	.weak	_ZNSt8functionIFllEED1Ev
	.set	_ZNSt8functionIFllEED1Ev,_ZNSt8functionIFllEED2Ev
	.text
	.align 2
	.type	_ZZN11fp_specific8long_mapESt8functionIFllEESt6vectorIlSaIlEEENUlS5_lE_D2Ev, @function
_ZZN11fp_specific8long_mapESt8functionIFllEESt6vectorIlSaIlEEENUlS5_lE_D2Ev:
.LFB3919:
	.cfi_startproc
	pushq	%rbp
	.cfi_def_cfa_offset 16
	.cfi_offset 6, -16
	movq	%rsp, %rbp
	.cfi_def_cfa_register 6
	subq	$16, %rsp
	movq	%rdi, -8(%rbp)
	movq	-8(%rbp), %rax
	movq	%rax, %rdi
	call	_ZNSt8functionIFllEED1Ev
	nop
	leave
	.cfi_def_cfa 7, 8
	ret
	.cfi_endproc
.LFE3919:
	.size	_ZZN11fp_specific8long_mapESt8functionIFllEESt6vectorIlSaIlEEENUlS5_lE_D2Ev, .-_ZZN11fp_specific8long_mapESt8functionIFllEESt6vectorIlSaIlEEENUlS5_lE_D2Ev
	.set	_ZZN11fp_specific8long_mapESt8functionIFllEESt6vectorIlSaIlEEENUlS5_lE_D1Ev,_ZZN11fp_specific8long_mapESt8functionIFllEESt6vectorIlSaIlEEENUlS5_lE_D2Ev
	.globl	_ZN11fp_specific8long_mapESt8functionIFllEESt6vectorIlSaIlEE
	.type	_ZN11fp_specific8long_mapESt8functionIFllEESt6vectorIlSaIlEE, @function
_ZN11fp_specific8long_mapESt8functionIFllEESt6vectorIlSaIlEE:
.LFB3885:
	.cfi_startproc
	.cfi_personality 0x9b,DW.ref.__gxx_personality_v0
	.cfi_lsda 0x1b,.LLSDA3885
	pushq	%rbp
	.cfi_def_cfa_offset 16
	.cfi_offset 6, -16
	movq	%rsp, %rbp
	.cfi_def_cfa_register 6
	pushq	%rbx
	subq	$184, %rsp
	.cfi_offset 3, -24
	movq	%rdi, -168(%rbp)
	movq	%rsi, -176(%rbp)
	movq	%rdx, -184(%rbp)
	movq	%fs:40, %rax
	movq	%rax, -24(%rbp)
	xorl	%eax, %eax
	pxor	%xmm0, %xmm0
	movaps	%xmm0, -160(%rbp)
	movq	%xmm0, -144(%rbp)
	leaq	-160(%rbp), %rdx
	leaq	-96(%rbp), %rax
	movq	%rdx, %rsi
	movq	%rax, %rdi
.LEHB5:
	call	_ZNSt6vectorIlSaIlEEC1ERKS1_
.LEHE5:
	movq	-184(%rbp), %rdx
	leaq	-128(%rbp), %rax
	movq	%rdx, %rsi
	movq	%rax, %rdi
.LEHB6:
	call	_ZNSt6vectorIlSaIlEEC1ERKS1_
.LEHE6:
	movq	-176(%rbp), %rdx
	leaq	-64(%rbp), %rax
	movq	%rdx, %rsi
	movq	%rax, %rdi
.LEHB7:
	call	_ZNSt8functionIFllEEC1ERKS1_
.LEHE7:
	movq	-168(%rbp), %rax
	leaq	-96(%rbp), %rcx
	leaq	-128(%rbp), %rdx
	leaq	-64(%rbp), %rsi
	movq	%rax, %rdi
.LEHB8:
	call	_ZN2fp6reduceIZN11fp_specific8long_mapESt8functionIFllEESt6vectorIlSaIlEEEUlS7_lE_S7_S7_EET1_T_T0_S9_
.LEHE8:
	nop
	leaq	-64(%rbp), %rax
	movq	%rax, %rdi
	call	_ZZN11fp_specific8long_mapESt8functionIFllEESt6vectorIlSaIlEEENUlS5_lE_D1Ev
	leaq	-128(%rbp), %rax
	movq	%rax, %rdi
	call	_ZNSt6vectorIlSaIlEED1Ev
	leaq	-96(%rbp), %rax
	movq	%rax, %rdi
	call	_ZNSt6vectorIlSaIlEED1Ev
	leaq	-160(%rbp), %rax
	movq	%rax, %rdi
	call	_ZNSt6vectorIlSaIlEED1Ev
	nop
	movq	-24(%rbp), %rax
	subq	%fs:40, %rax
	je	.L58
	jmp	.L63
.L62:
	movq	%rax, %rbx
	leaq	-64(%rbp), %rax
	movq	%rax, %rdi
	call	_ZZN11fp_specific8long_mapESt8functionIFllEESt6vectorIlSaIlEEENUlS5_lE_D1Ev
	jmp	.L54
.L61:
	movq	%rax, %rbx
.L54:
	leaq	-128(%rbp), %rax
	movq	%rax, %rdi
	call	_ZNSt6vectorIlSaIlEED1Ev
	jmp	.L55
.L60:
	movq	%rax, %rbx
.L55:
	leaq	-96(%rbp), %rax
	movq	%rax, %rdi
	call	_ZNSt6vectorIlSaIlEED1Ev
	jmp	.L56
.L59:
	movq	%rax, %rbx
.L56:
	leaq	-160(%rbp), %rax
	movq	%rax, %rdi
	call	_ZNSt6vectorIlSaIlEED1Ev
	movq	%rbx, %rax
	movq	-24(%rbp), %rdx
	subq	%fs:40, %rdx
	je	.L57
	call	__stack_chk_fail@PLT
.L57:
	movq	%rax, %rdi
.LEHB9:
	call	_Unwind_Resume@PLT
.LEHE9:
.L63:
	call	__stack_chk_fail@PLT
.L58:
	movq	-168(%rbp), %rax
	movq	-8(%rbp), %rbx
	leave
	.cfi_def_cfa 7, 8
	ret
	.cfi_endproc
.LFE3885:
	.section	.gcc_except_table
.LLSDA3885:
	.byte	0xff
	.byte	0xff
	.byte	0x1
	.uleb128 .LLSDACSE3885-.LLSDACSB3885
.LLSDACSB3885:
	.uleb128 .LEHB5-.LFB3885
	.uleb128 .LEHE5-.LEHB5
	.uleb128 .L59-.LFB3885
	.uleb128 0
	.uleb128 .LEHB6-.LFB3885
	.uleb128 .LEHE6-.LEHB6
	.uleb128 .L60-.LFB3885
	.uleb128 0
	.uleb128 .LEHB7-.LFB3885
	.uleb128 .LEHE7-.LEHB7
	.uleb128 .L61-.LFB3885
	.uleb128 0
	.uleb128 .LEHB8-.LFB3885
	.uleb128 .LEHE8-.LEHB8
	.uleb128 .L62-.LFB3885
	.uleb128 0
	.uleb128 .LEHB9-.LFB3885
	.uleb128 .LEHE9-.LEHB9
	.uleb128 0
	.uleb128 0
.LLSDACSE3885:
	.text
	.size	_ZN11fp_specific8long_mapESt8functionIFllEESt6vectorIlSaIlEE, .-_ZN11fp_specific8long_mapESt8functionIFllEESt6vectorIlSaIlEE
	.section	.text._ZNSt12_Vector_baseIdSaIdEE12_Vector_implD2Ev,"axG",@progbits,_ZNSt12_Vector_baseIdSaIdEE12_Vector_implD5Ev,comdat
	.align 2
	.weak	_ZNSt12_Vector_baseIdSaIdEE12_Vector_implD2Ev
	.type	_ZNSt12_Vector_baseIdSaIdEE12_Vector_implD2Ev, @function
_ZNSt12_Vector_baseIdSaIdEE12_Vector_implD2Ev:
.LFB3926:
	.cfi_startproc
	pushq	%rbp
	.cfi_def_cfa_offset 16
	.cfi_offset 6, -16
	movq	%rsp, %rbp
	.cfi_def_cfa_register 6
	movq	%rdi, -24(%rbp)
	movq	-24(%rbp), %rax
	movq	%rax, -8(%rbp)
	nop
	nop
	popq	%rbp
	.cfi_def_cfa 7, 8
	ret
	.cfi_endproc
.LFE3926:
	.size	_ZNSt12_Vector_baseIdSaIdEE12_Vector_implD2Ev, .-_ZNSt12_Vector_baseIdSaIdEE12_Vector_implD2Ev
	.weak	_ZNSt12_Vector_baseIdSaIdEE12_Vector_implD1Ev
	.set	_ZNSt12_Vector_baseIdSaIdEE12_Vector_implD1Ev,_ZNSt12_Vector_baseIdSaIdEE12_Vector_implD2Ev
	.section	.text._ZNSt12_Vector_baseIdSaIdEE17_Vector_impl_dataC2Ev,"axG",@progbits,_ZNSt12_Vector_baseIdSaIdEE17_Vector_impl_dataC2Ev,comdat
	.align 2
	.weak	_ZNSt12_Vector_baseIdSaIdEE17_Vector_impl_dataC2Ev
	.type	_ZNSt12_Vector_baseIdSaIdEE17_Vector_impl_dataC2Ev, @function
_ZNSt12_Vector_baseIdSaIdEE17_Vector_impl_dataC2Ev:
.LFB3942:
	.cfi_startproc
	pushq	%rbp
	.cfi_def_cfa_offset 16
	.cfi_offset 6, -16
	movq	%rsp, %rbp
	.cfi_def_cfa_register 6
	movq	%rdi, -8(%rbp)
	movq	-8(%rbp), %rax
	movq	$0, (%rax)
	movq	-8(%rbp), %rax
	movq	$0, 8(%rax)
	movq	-8(%rbp), %rax
	movq	$0, 16(%rax)
	nop
	popq	%rbp
	.cfi_def_cfa 7, 8
	ret
	.cfi_endproc
.LFE3942:
	.size	_ZNSt12_Vector_baseIdSaIdEE17_Vector_impl_dataC2Ev, .-_ZNSt12_Vector_baseIdSaIdEE17_Vector_impl_dataC2Ev
	.section	.text._ZNSt12_Vector_baseIdSaIdEEC2EOS1_,"axG",@progbits,_ZNSt12_Vector_baseIdSaIdEEC5EOS1_,comdat
	.align 2
	.weak	_ZNSt12_Vector_baseIdSaIdEEC2EOS1_
	.type	_ZNSt12_Vector_baseIdSaIdEEC2EOS1_, @function
_ZNSt12_Vector_baseIdSaIdEEC2EOS1_:
.LFB3947:
	.cfi_startproc
	pushq	%rbp
	.cfi_def_cfa_offset 16
	.cfi_offset 6, -16
	movq	%rsp, %rbp
	.cfi_def_cfa_register 6
	subq	$16, %rsp
	movq	%rdi, -8(%rbp)
	movq	%rsi, -16(%rbp)
	movq	-8(%rbp), %rax
	movq	-16(%rbp), %rdx
	movq	%rdx, %rsi
	movq	%rax, %rdi
	call	_ZNSt12_Vector_baseIdSaIdEE12_Vector_implC1EOS2_
	nop
	leave
	.cfi_def_cfa 7, 8
	ret
	.cfi_endproc
.LFE3947:
	.size	_ZNSt12_Vector_baseIdSaIdEEC2EOS1_, .-_ZNSt12_Vector_baseIdSaIdEEC2EOS1_
	.weak	_ZNSt12_Vector_baseIdSaIdEEC1EOS1_
	.set	_ZNSt12_Vector_baseIdSaIdEEC1EOS1_,_ZNSt12_Vector_baseIdSaIdEEC2EOS1_
	.section	.text._ZNSt6vectorIdSaIdEEC2EOS1_,"axG",@progbits,_ZNSt6vectorIdSaIdEEC5EOS1_,comdat
	.align 2
	.weak	_ZNSt6vectorIdSaIdEEC2EOS1_
	.type	_ZNSt6vectorIdSaIdEEC2EOS1_, @function
_ZNSt6vectorIdSaIdEEC2EOS1_:
.LFB3949:
	.cfi_startproc
	pushq	%rbp
	.cfi_def_cfa_offset 16
	.cfi_offset 6, -16
	movq	%rsp, %rbp
	.cfi_def_cfa_register 6
	subq	$16, %rsp
	movq	%rdi, -8(%rbp)
	movq	%rsi, -16(%rbp)
	movq	-8(%rbp), %rax
	movq	-16(%rbp), %rdx
	movq	%rdx, %rsi
	movq	%rax, %rdi
	call	_ZNSt12_Vector_baseIdSaIdEEC2EOS1_
	nop
	leave
	.cfi_def_cfa 7, 8
	ret
	.cfi_endproc
.LFE3949:
	.size	_ZNSt6vectorIdSaIdEEC2EOS1_, .-_ZNSt6vectorIdSaIdEEC2EOS1_
	.weak	_ZNSt6vectorIdSaIdEEC1EOS1_
	.set	_ZNSt6vectorIdSaIdEEC1EOS1_,_ZNSt6vectorIdSaIdEEC2EOS1_
	.text
	.align 2
	.type	_ZZN11fp_specific10double_mapESt8functionIFddEESt6vectorIdSaIdEEENKUlS5_dE_clES5_d, @function
_ZZN11fp_specific10double_mapESt8functionIFddEESt6vectorIdSaIdEEENKUlS5_dE_clES5_d:
.LFB3944:
	.cfi_startproc
	pushq	%rbp
	.cfi_def_cfa_offset 16
	.cfi_offset 6, -16
	movq	%rsp, %rbp
	.cfi_def_cfa_register 6
	subq	$48, %rsp
	movq	%rdi, -24(%rbp)
	movq	%rsi, -32(%rbp)
	movq	%rdx, -40(%rbp)
	movsd	%xmm0, -48(%rbp)
	movq	%fs:40, %rax
	movq	%rax, -8(%rbp)
	xorl	%eax, %eax
	movq	-32(%rbp), %rax
	movq	-48(%rbp), %rdx
	movq	%rdx, %xmm0
	movq	%rax, %rdi
	call	_ZNKSt8functionIFddEEclEd
	movq	%xmm0, %rax
	movq	%rax, -16(%rbp)
	leaq	-16(%rbp), %rdx
	movq	-40(%rbp), %rax
	movq	%rdx, %rsi
	movq	%rax, %rdi
	call	_ZNSt6vectorIdSaIdEE9push_backEOd
	movq	-40(%rbp), %rdx
	movq	-24(%rbp), %rax
	movq	%rdx, %rsi
	movq	%rax, %rdi
	call	_ZNSt6vectorIdSaIdEEC1EOS1_
	movq	-8(%rbp), %rax
	subq	%fs:40, %rax
	je	.L70
	call	__stack_chk_fail@PLT
.L70:
	movq	-24(%rbp), %rax
	leave
	.cfi_def_cfa 7, 8
	ret
	.cfi_endproc
.LFE3944:
	.size	_ZZN11fp_specific10double_mapESt8functionIFddEESt6vectorIdSaIdEEENKUlS5_dE_clES5_d, .-_ZZN11fp_specific10double_mapESt8functionIFddEESt6vectorIdSaIdEEENKUlS5_dE_clES5_d
	.section	.text._ZNSt8functionIFddEED2Ev,"axG",@progbits,_ZNSt8functionIFddEED5Ev,comdat
	.align 2
	.weak	_ZNSt8functionIFddEED2Ev
	.type	_ZNSt8functionIFddEED2Ev, @function
_ZNSt8functionIFddEED2Ev:
.LFB3952:
	.cfi_startproc
	pushq	%rbp
	.cfi_def_cfa_offset 16
	.cfi_offset 6, -16
	movq	%rsp, %rbp
	.cfi_def_cfa_register 6
	subq	$16, %rsp
	movq	%rdi, -8(%rbp)
	movq	-8(%rbp), %rax
	movq	%rax, %rdi
	call	_ZNSt14_Function_baseD2Ev
	nop
	leave
	.cfi_def_cfa 7, 8
	ret
	.cfi_endproc
.LFE3952:
	.size	_ZNSt8functionIFddEED2Ev, .-_ZNSt8functionIFddEED2Ev
	.weak	_ZNSt8functionIFddEED1Ev
	.set	_ZNSt8functionIFddEED1Ev,_ZNSt8functionIFddEED2Ev
	.text
	.align 2
	.type	_ZZN11fp_specific10double_mapESt8functionIFddEESt6vectorIdSaIdEEENUlS5_dE_D2Ev, @function
_ZZN11fp_specific10double_mapESt8functionIFddEESt6vectorIdSaIdEEENUlS5_dE_D2Ev:
.LFB3955:
	.cfi_startproc
	pushq	%rbp
	.cfi_def_cfa_offset 16
	.cfi_offset 6, -16
	movq	%rsp, %rbp
	.cfi_def_cfa_register 6
	subq	$16, %rsp
	movq	%rdi, -8(%rbp)
	movq	-8(%rbp), %rax
	movq	%rax, %rdi
	call	_ZNSt8functionIFddEED1Ev
	nop
	leave
	.cfi_def_cfa 7, 8
	ret
	.cfi_endproc
.LFE3955:
	.size	_ZZN11fp_specific10double_mapESt8functionIFddEESt6vectorIdSaIdEEENUlS5_dE_D2Ev, .-_ZZN11fp_specific10double_mapESt8functionIFddEESt6vectorIdSaIdEEENUlS5_dE_D2Ev
	.set	_ZZN11fp_specific10double_mapESt8functionIFddEESt6vectorIdSaIdEEENUlS5_dE_D1Ev,_ZZN11fp_specific10double_mapESt8functionIFddEESt6vectorIdSaIdEEENUlS5_dE_D2Ev
	.globl	_ZN11fp_specific10double_mapESt8functionIFddEESt6vectorIdSaIdEE
	.type	_ZN11fp_specific10double_mapESt8functionIFddEESt6vectorIdSaIdEE, @function
_ZN11fp_specific10double_mapESt8functionIFddEESt6vectorIdSaIdEE:
.LFB3921:
	.cfi_startproc
	.cfi_personality 0x9b,DW.ref.__gxx_personality_v0
	.cfi_lsda 0x1b,.LLSDA3921
	pushq	%rbp
	.cfi_def_cfa_offset 16
	.cfi_offset 6, -16
	movq	%rsp, %rbp
	.cfi_def_cfa_register 6
	pushq	%rbx
	subq	$184, %rsp
	.cfi_offset 3, -24
	movq	%rdi, -168(%rbp)
	movq	%rsi, -176(%rbp)
	movq	%rdx, -184(%rbp)
	movq	%fs:40, %rax
	movq	%rax, -24(%rbp)
	xorl	%eax, %eax
	pxor	%xmm0, %xmm0
	movaps	%xmm0, -160(%rbp)
	movq	%xmm0, -144(%rbp)
	leaq	-160(%rbp), %rdx
	leaq	-96(%rbp), %rax
	movq	%rdx, %rsi
	movq	%rax, %rdi
.LEHB10:
	call	_ZNSt6vectorIdSaIdEEC1ERKS1_
.LEHE10:
	movq	-184(%rbp), %rdx
	leaq	-128(%rbp), %rax
	movq	%rdx, %rsi
	movq	%rax, %rdi
.LEHB11:
	call	_ZNSt6vectorIdSaIdEEC1ERKS1_
.LEHE11:
	movq	-176(%rbp), %rdx
	leaq	-64(%rbp), %rax
	movq	%rdx, %rsi
	movq	%rax, %rdi
.LEHB12:
	call	_ZNSt8functionIFddEEC1ERKS1_
.LEHE12:
	movq	-168(%rbp), %rax
	leaq	-96(%rbp), %rcx
	leaq	-128(%rbp), %rdx
	leaq	-64(%rbp), %rsi
	movq	%rax, %rdi
.LEHB13:
	call	_ZN2fp6reduceIZN11fp_specific10double_mapESt8functionIFddEESt6vectorIdSaIdEEEUlS7_dE_S7_S7_EET1_T_T0_S9_
.LEHE13:
	nop
	leaq	-64(%rbp), %rax
	movq	%rax, %rdi
	call	_ZZN11fp_specific10double_mapESt8functionIFddEESt6vectorIdSaIdEEENUlS5_dE_D1Ev
	leaq	-128(%rbp), %rax
	movq	%rax, %rdi
	call	_ZNSt6vectorIdSaIdEED1Ev
	leaq	-96(%rbp), %rax
	movq	%rax, %rdi
	call	_ZNSt6vectorIdSaIdEED1Ev
	leaq	-160(%rbp), %rax
	movq	%rax, %rdi
	call	_ZNSt6vectorIdSaIdEED1Ev
	nop
	movq	-24(%rbp), %rax
	subq	%fs:40, %rax
	je	.L80
	jmp	.L85
.L84:
	movq	%rax, %rbx
	leaq	-64(%rbp), %rax
	movq	%rax, %rdi
	call	_ZZN11fp_specific10double_mapESt8functionIFddEESt6vectorIdSaIdEEENUlS5_dE_D1Ev
	jmp	.L76
.L83:
	movq	%rax, %rbx
.L76:
	leaq	-128(%rbp), %rax
	movq	%rax, %rdi
	call	_ZNSt6vectorIdSaIdEED1Ev
	jmp	.L77
.L82:
	movq	%rax, %rbx
.L77:
	leaq	-96(%rbp), %rax
	movq	%rax, %rdi
	call	_ZNSt6vectorIdSaIdEED1Ev
	jmp	.L78
.L81:
	movq	%rax, %rbx
.L78:
	leaq	-160(%rbp), %rax
	movq	%rax, %rdi
	call	_ZNSt6vectorIdSaIdEED1Ev
	movq	%rbx, %rax
	movq	-24(%rbp), %rdx
	subq	%fs:40, %rdx
	je	.L79
	call	__stack_chk_fail@PLT
.L79:
	movq	%rax, %rdi
.LEHB14:
	call	_Unwind_Resume@PLT
.LEHE14:
.L85:
	call	__stack_chk_fail@PLT
.L80:
	movq	-168(%rbp), %rax
	movq	-8(%rbp), %rbx
	leave
	.cfi_def_cfa 7, 8
	ret
	.cfi_endproc
.LFE3921:
	.section	.gcc_except_table
.LLSDA3921:
	.byte	0xff
	.byte	0xff
	.byte	0x1
	.uleb128 .LLSDACSE3921-.LLSDACSB3921
.LLSDACSB3921:
	.uleb128 .LEHB10-.LFB3921
	.uleb128 .LEHE10-.LEHB10
	.uleb128 .L81-.LFB3921
	.uleb128 0
	.uleb128 .LEHB11-.LFB3921
	.uleb128 .LEHE11-.LEHB11
	.uleb128 .L82-.LFB3921
	.uleb128 0
	.uleb128 .LEHB12-.LFB3921
	.uleb128 .LEHE12-.LEHB12
	.uleb128 .L83-.LFB3921
	.uleb128 0
	.uleb128 .LEHB13-.LFB3921
	.uleb128 .LEHE13-.LEHB13
	.uleb128 .L84-.LFB3921
	.uleb128 0
	.uleb128 .LEHB14-.LFB3921
	.uleb128 .LEHE14-.LEHB14
	.uleb128 0
	.uleb128 0
.LLSDACSE3921:
	.text
	.size	_ZN11fp_specific10double_mapESt8functionIFddEESt6vectorIdSaIdEE, .-_ZN11fp_specific10double_mapESt8functionIFddEESt6vectorIdSaIdEE
	.section	.text._ZNSt12_Vector_baseIfSaIfEE12_Vector_implD2Ev,"axG",@progbits,_ZNSt12_Vector_baseIfSaIfEE12_Vector_implD5Ev,comdat
	.align 2
	.weak	_ZNSt12_Vector_baseIfSaIfEE12_Vector_implD2Ev
	.type	_ZNSt12_Vector_baseIfSaIfEE12_Vector_implD2Ev, @function
_ZNSt12_Vector_baseIfSaIfEE12_Vector_implD2Ev:
.LFB3962:
	.cfi_startproc
	pushq	%rbp
	.cfi_def_cfa_offset 16
	.cfi_offset 6, -16
	movq	%rsp, %rbp
	.cfi_def_cfa_register 6
	movq	%rdi, -24(%rbp)
	movq	-24(%rbp), %rax
	movq	%rax, -8(%rbp)
	nop
	nop
	popq	%rbp
	.cfi_def_cfa 7, 8
	ret
	.cfi_endproc
.LFE3962:
	.size	_ZNSt12_Vector_baseIfSaIfEE12_Vector_implD2Ev, .-_ZNSt12_Vector_baseIfSaIfEE12_Vector_implD2Ev
	.weak	_ZNSt12_Vector_baseIfSaIfEE12_Vector_implD1Ev
	.set	_ZNSt12_Vector_baseIfSaIfEE12_Vector_implD1Ev,_ZNSt12_Vector_baseIfSaIfEE12_Vector_implD2Ev
	.section	.text._ZNSt12_Vector_baseIfSaIfEE17_Vector_impl_dataC2Ev,"axG",@progbits,_ZNSt12_Vector_baseIfSaIfEE17_Vector_impl_dataC2Ev,comdat
	.align 2
	.weak	_ZNSt12_Vector_baseIfSaIfEE17_Vector_impl_dataC2Ev
	.type	_ZNSt12_Vector_baseIfSaIfEE17_Vector_impl_dataC2Ev, @function
_ZNSt12_Vector_baseIfSaIfEE17_Vector_impl_dataC2Ev:
.LFB3978:
	.cfi_startproc
	pushq	%rbp
	.cfi_def_cfa_offset 16
	.cfi_offset 6, -16
	movq	%rsp, %rbp
	.cfi_def_cfa_register 6
	movq	%rdi, -8(%rbp)
	movq	-8(%rbp), %rax
	movq	$0, (%rax)
	movq	-8(%rbp), %rax
	movq	$0, 8(%rax)
	movq	-8(%rbp), %rax
	movq	$0, 16(%rax)
	nop
	popq	%rbp
	.cfi_def_cfa 7, 8
	ret
	.cfi_endproc
.LFE3978:
	.size	_ZNSt12_Vector_baseIfSaIfEE17_Vector_impl_dataC2Ev, .-_ZNSt12_Vector_baseIfSaIfEE17_Vector_impl_dataC2Ev
	.section	.text._ZNSt12_Vector_baseIfSaIfEEC2EOS1_,"axG",@progbits,_ZNSt12_Vector_baseIfSaIfEEC5EOS1_,comdat
	.align 2
	.weak	_ZNSt12_Vector_baseIfSaIfEEC2EOS1_
	.type	_ZNSt12_Vector_baseIfSaIfEEC2EOS1_, @function
_ZNSt12_Vector_baseIfSaIfEEC2EOS1_:
.LFB3983:
	.cfi_startproc
	pushq	%rbp
	.cfi_def_cfa_offset 16
	.cfi_offset 6, -16
	movq	%rsp, %rbp
	.cfi_def_cfa_register 6
	subq	$16, %rsp
	movq	%rdi, -8(%rbp)
	movq	%rsi, -16(%rbp)
	movq	-8(%rbp), %rax
	movq	-16(%rbp), %rdx
	movq	%rdx, %rsi
	movq	%rax, %rdi
	call	_ZNSt12_Vector_baseIfSaIfEE12_Vector_implC1EOS2_
	nop
	leave
	.cfi_def_cfa 7, 8
	ret
	.cfi_endproc
.LFE3983:
	.size	_ZNSt12_Vector_baseIfSaIfEEC2EOS1_, .-_ZNSt12_Vector_baseIfSaIfEEC2EOS1_
	.weak	_ZNSt12_Vector_baseIfSaIfEEC1EOS1_
	.set	_ZNSt12_Vector_baseIfSaIfEEC1EOS1_,_ZNSt12_Vector_baseIfSaIfEEC2EOS1_
	.section	.text._ZNSt6vectorIfSaIfEEC2EOS1_,"axG",@progbits,_ZNSt6vectorIfSaIfEEC5EOS1_,comdat
	.align 2
	.weak	_ZNSt6vectorIfSaIfEEC2EOS1_
	.type	_ZNSt6vectorIfSaIfEEC2EOS1_, @function
_ZNSt6vectorIfSaIfEEC2EOS1_:
.LFB3985:
	.cfi_startproc
	pushq	%rbp
	.cfi_def_cfa_offset 16
	.cfi_offset 6, -16
	movq	%rsp, %rbp
	.cfi_def_cfa_register 6
	subq	$16, %rsp
	movq	%rdi, -8(%rbp)
	movq	%rsi, -16(%rbp)
	movq	-8(%rbp), %rax
	movq	-16(%rbp), %rdx
	movq	%rdx, %rsi
	movq	%rax, %rdi
	call	_ZNSt12_Vector_baseIfSaIfEEC2EOS1_
	nop
	leave
	.cfi_def_cfa 7, 8
	ret
	.cfi_endproc
.LFE3985:
	.size	_ZNSt6vectorIfSaIfEEC2EOS1_, .-_ZNSt6vectorIfSaIfEEC2EOS1_
	.weak	_ZNSt6vectorIfSaIfEEC1EOS1_
	.set	_ZNSt6vectorIfSaIfEEC1EOS1_,_ZNSt6vectorIfSaIfEEC2EOS1_
	.text
	.align 2
	.type	_ZZN11fp_specific9float_mapESt8functionIFffEESt6vectorIfSaIfEEENKUlS5_fE_clES5_f, @function
_ZZN11fp_specific9float_mapESt8functionIFffEESt6vectorIfSaIfEEENKUlS5_fE_clES5_f:
.LFB3980:
	.cfi_startproc
	pushq	%rbp
	.cfi_def_cfa_offset 16
	.cfi_offset 6, -16
	movq	%rsp, %rbp
	.cfi_def_cfa_register 6
	subq	$48, %rsp
	movq	%rdi, -24(%rbp)
	movq	%rsi, -32(%rbp)
	movq	%rdx, -40(%rbp)
	movss	%xmm0, -44(%rbp)
	movq	%fs:40, %rax
	movq	%rax, -8(%rbp)
	xorl	%eax, %eax
	movq	-32(%rbp), %rax
	movl	-44(%rbp), %edx
	movd	%edx, %xmm0
	movq	%rax, %rdi
	call	_ZNKSt8functionIFffEEclEf
	movd	%xmm0, %eax
	movl	%eax, -12(%rbp)
	leaq	-12(%rbp), %rdx
	movq	-40(%rbp), %rax
	movq	%rdx, %rsi
	movq	%rax, %rdi
	call	_ZNSt6vectorIfSaIfEE9push_backEOf
	movq	-40(%rbp), %rdx
	movq	-24(%rbp), %rax
	movq	%rdx, %rsi
	movq	%rax, %rdi
	call	_ZNSt6vectorIfSaIfEEC1EOS1_
	movq	-8(%rbp), %rax
	subq	%fs:40, %rax
	je	.L92
	call	__stack_chk_fail@PLT
.L92:
	movq	-24(%rbp), %rax
	leave
	.cfi_def_cfa 7, 8
	ret
	.cfi_endproc
.LFE3980:
	.size	_ZZN11fp_specific9float_mapESt8functionIFffEESt6vectorIfSaIfEEENKUlS5_fE_clES5_f, .-_ZZN11fp_specific9float_mapESt8functionIFffEESt6vectorIfSaIfEEENKUlS5_fE_clES5_f
	.section	.text._ZNSt8functionIFffEED2Ev,"axG",@progbits,_ZNSt8functionIFffEED5Ev,comdat
	.align 2
	.weak	_ZNSt8functionIFffEED2Ev
	.type	_ZNSt8functionIFffEED2Ev, @function
_ZNSt8functionIFffEED2Ev:
.LFB3988:
	.cfi_startproc
	pushq	%rbp
	.cfi_def_cfa_offset 16
	.cfi_offset 6, -16
	movq	%rsp, %rbp
	.cfi_def_cfa_register 6
	subq	$16, %rsp
	movq	%rdi, -8(%rbp)
	movq	-8(%rbp), %rax
	movq	%rax, %rdi
	call	_ZNSt14_Function_baseD2Ev
	nop
	leave
	.cfi_def_cfa 7, 8
	ret
	.cfi_endproc
.LFE3988:
	.size	_ZNSt8functionIFffEED2Ev, .-_ZNSt8functionIFffEED2Ev
	.weak	_ZNSt8functionIFffEED1Ev
	.set	_ZNSt8functionIFffEED1Ev,_ZNSt8functionIFffEED2Ev
	.text
	.align 2
	.type	_ZZN11fp_specific9float_mapESt8functionIFffEESt6vectorIfSaIfEEENUlS5_fE_D2Ev, @function
_ZZN11fp_specific9float_mapESt8functionIFffEESt6vectorIfSaIfEEENUlS5_fE_D2Ev:
.LFB3991:
	.cfi_startproc
	pushq	%rbp
	.cfi_def_cfa_offset 16
	.cfi_offset 6, -16
	movq	%rsp, %rbp
	.cfi_def_cfa_register 6
	subq	$16, %rsp
	movq	%rdi, -8(%rbp)
	movq	-8(%rbp), %rax
	movq	%rax, %rdi
	call	_ZNSt8functionIFffEED1Ev
	nop
	leave
	.cfi_def_cfa 7, 8
	ret
	.cfi_endproc
.LFE3991:
	.size	_ZZN11fp_specific9float_mapESt8functionIFffEESt6vectorIfSaIfEEENUlS5_fE_D2Ev, .-_ZZN11fp_specific9float_mapESt8functionIFffEESt6vectorIfSaIfEEENUlS5_fE_D2Ev
	.set	_ZZN11fp_specific9float_mapESt8functionIFffEESt6vectorIfSaIfEEENUlS5_fE_D1Ev,_ZZN11fp_specific9float_mapESt8functionIFffEESt6vectorIfSaIfEEENUlS5_fE_D2Ev
	.globl	_ZN11fp_specific9float_mapESt8functionIFffEESt6vectorIfSaIfEE
	.type	_ZN11fp_specific9float_mapESt8functionIFffEESt6vectorIfSaIfEE, @function
_ZN11fp_specific9float_mapESt8functionIFffEESt6vectorIfSaIfEE:
.LFB3957:
	.cfi_startproc
	.cfi_personality 0x9b,DW.ref.__gxx_personality_v0
	.cfi_lsda 0x1b,.LLSDA3957
	pushq	%rbp
	.cfi_def_cfa_offset 16
	.cfi_offset 6, -16
	movq	%rsp, %rbp
	.cfi_def_cfa_register 6
	pushq	%rbx
	subq	$184, %rsp
	.cfi_offset 3, -24
	movq	%rdi, -168(%rbp)
	movq	%rsi, -176(%rbp)
	movq	%rdx, -184(%rbp)
	movq	%fs:40, %rax
	movq	%rax, -24(%rbp)
	xorl	%eax, %eax
	pxor	%xmm0, %xmm0
	movaps	%xmm0, -160(%rbp)
	movq	%xmm0, -144(%rbp)
	leaq	-160(%rbp), %rdx
	leaq	-96(%rbp), %rax
	movq	%rdx, %rsi
	movq	%rax, %rdi
.LEHB15:
	call	_ZNSt6vectorIfSaIfEEC1ERKS1_
.LEHE15:
	movq	-184(%rbp), %rdx
	leaq	-128(%rbp), %rax
	movq	%rdx, %rsi
	movq	%rax, %rdi
.LEHB16:
	call	_ZNSt6vectorIfSaIfEEC1ERKS1_
.LEHE16:
	movq	-176(%rbp), %rdx
	leaq	-64(%rbp), %rax
	movq	%rdx, %rsi
	movq	%rax, %rdi
.LEHB17:
	call	_ZNSt8functionIFffEEC1ERKS1_
.LEHE17:
	movq	-168(%rbp), %rax
	leaq	-96(%rbp), %rcx
	leaq	-128(%rbp), %rdx
	leaq	-64(%rbp), %rsi
	movq	%rax, %rdi
.LEHB18:
	call	_ZN2fp6reduceIZN11fp_specific9float_mapESt8functionIFffEESt6vectorIfSaIfEEEUlS7_fE_S7_S7_EET1_T_T0_S9_
.LEHE18:
	nop
	leaq	-64(%rbp), %rax
	movq	%rax, %rdi
	call	_ZZN11fp_specific9float_mapESt8functionIFffEESt6vectorIfSaIfEEENUlS5_fE_D1Ev
	leaq	-128(%rbp), %rax
	movq	%rax, %rdi
	call	_ZNSt6vectorIfSaIfEED1Ev
	leaq	-96(%rbp), %rax
	movq	%rax, %rdi
	call	_ZNSt6vectorIfSaIfEED1Ev
	leaq	-160(%rbp), %rax
	movq	%rax, %rdi
	call	_ZNSt6vectorIfSaIfEED1Ev
	nop
	movq	-24(%rbp), %rax
	subq	%fs:40, %rax
	je	.L102
	jmp	.L107
.L106:
	movq	%rax, %rbx
	leaq	-64(%rbp), %rax
	movq	%rax, %rdi
	call	_ZZN11fp_specific9float_mapESt8functionIFffEESt6vectorIfSaIfEEENUlS5_fE_D1Ev
	jmp	.L98
.L105:
	movq	%rax, %rbx
.L98:
	leaq	-128(%rbp), %rax
	movq	%rax, %rdi
	call	_ZNSt6vectorIfSaIfEED1Ev
	jmp	.L99
.L104:
	movq	%rax, %rbx
.L99:
	leaq	-96(%rbp), %rax
	movq	%rax, %rdi
	call	_ZNSt6vectorIfSaIfEED1Ev
	jmp	.L100
.L103:
	movq	%rax, %rbx
.L100:
	leaq	-160(%rbp), %rax
	movq	%rax, %rdi
	call	_ZNSt6vectorIfSaIfEED1Ev
	movq	%rbx, %rax
	movq	-24(%rbp), %rdx
	subq	%fs:40, %rdx
	je	.L101
	call	__stack_chk_fail@PLT
.L101:
	movq	%rax, %rdi
.LEHB19:
	call	_Unwind_Resume@PLT
.LEHE19:
.L107:
	call	__stack_chk_fail@PLT
.L102:
	movq	-168(%rbp), %rax
	movq	-8(%rbp), %rbx
	leave
	.cfi_def_cfa 7, 8
	ret
	.cfi_endproc
.LFE3957:
	.section	.gcc_except_table
.LLSDA3957:
	.byte	0xff
	.byte	0xff
	.byte	0x1
	.uleb128 .LLSDACSE3957-.LLSDACSB3957
.LLSDACSB3957:
	.uleb128 .LEHB15-.LFB3957
	.uleb128 .LEHE15-.LEHB15
	.uleb128 .L103-.LFB3957
	.uleb128 0
	.uleb128 .LEHB16-.LFB3957
	.uleb128 .LEHE16-.LEHB16
	.uleb128 .L104-.LFB3957
	.uleb128 0
	.uleb128 .LEHB17-.LFB3957
	.uleb128 .LEHE17-.LEHB17
	.uleb128 .L105-.LFB3957
	.uleb128 0
	.uleb128 .LEHB18-.LFB3957
	.uleb128 .LEHE18-.LEHB18
	.uleb128 .L106-.LFB3957
	.uleb128 0
	.uleb128 .LEHB19-.LFB3957
	.uleb128 .LEHE19-.LEHB19
	.uleb128 0
	.uleb128 0
.LLSDACSE3957:
	.text
	.size	_ZN11fp_specific9float_mapESt8functionIFffEESt6vectorIfSaIfEE, .-_ZN11fp_specific9float_mapESt8functionIFffEESt6vectorIfSaIfEE
	.align 2
	.type	_ZZN11fp_specific10int_filterESt8functionIFbiEESt6vectorIiSaIiEEENKUlS5_iE_clES5_i, @function
_ZZN11fp_specific10int_filterESt8functionIFbiEESt6vectorIiSaIiEEENKUlS5_iE_clES5_i:
.LFB3994:
	.cfi_startproc
	pushq	%rbp
	.cfi_def_cfa_offset 16
	.cfi_offset 6, -16
	movq	%rsp, %rbp
	.cfi_def_cfa_register 6
	subq	$32, %rsp
	movq	%rdi, -8(%rbp)
	movq	%rsi, -16(%rbp)
	movq	%rdx, -24(%rbp)
	movl	%ecx, -28(%rbp)
	movq	-16(%rbp), %rax
	movl	-28(%rbp), %edx
	movl	%edx, %esi
	movq	%rax, %rdi
	call	_ZNKSt8functionIFbiEEclEi
	testb	%al, %al
	je	.L109
	leaq	-28(%rbp), %rdx
	movq	-24(%rbp), %rax
	movq	%rdx, %rsi
	movq	%rax, %rdi
	call	_ZNSt6vectorIiSaIiEE9push_backERKi
.L109:
	movq	-24(%rbp), %rdx
	movq	-8(%rbp), %rax
	movq	%rdx, %rsi
	movq	%rax, %rdi
	call	_ZNSt6vectorIiSaIiEEC1EOS1_
	movq	-8(%rbp), %rax
	leave
	.cfi_def_cfa 7, 8
	ret
	.cfi_endproc
.LFE3994:
	.size	_ZZN11fp_specific10int_filterESt8functionIFbiEESt6vectorIiSaIiEEENKUlS5_iE_clES5_i, .-_ZZN11fp_specific10int_filterESt8functionIFbiEESt6vectorIiSaIiEEENKUlS5_iE_clES5_i
	.section	.text._ZNSt8functionIFbiEED2Ev,"axG",@progbits,_ZNSt8functionIFbiEED5Ev,comdat
	.align 2
	.weak	_ZNSt8functionIFbiEED2Ev
	.type	_ZNSt8functionIFbiEED2Ev, @function
_ZNSt8functionIFbiEED2Ev:
.LFB3996:
	.cfi_startproc
	pushq	%rbp
	.cfi_def_cfa_offset 16
	.cfi_offset 6, -16
	movq	%rsp, %rbp
	.cfi_def_cfa_register 6
	subq	$16, %rsp
	movq	%rdi, -8(%rbp)
	movq	-8(%rbp), %rax
	movq	%rax, %rdi
	call	_ZNSt14_Function_baseD2Ev
	nop
	leave
	.cfi_def_cfa 7, 8
	ret
	.cfi_endproc
.LFE3996:
	.size	_ZNSt8functionIFbiEED2Ev, .-_ZNSt8functionIFbiEED2Ev
	.weak	_ZNSt8functionIFbiEED1Ev
	.set	_ZNSt8functionIFbiEED1Ev,_ZNSt8functionIFbiEED2Ev
	.text
	.align 2
	.type	_ZZN11fp_specific10int_filterESt8functionIFbiEESt6vectorIiSaIiEEENUlS5_iE_D2Ev, @function
_ZZN11fp_specific10int_filterESt8functionIFbiEESt6vectorIiSaIiEEENUlS5_iE_D2Ev:
.LFB3999:
	.cfi_startproc
	pushq	%rbp
	.cfi_def_cfa_offset 16
	.cfi_offset 6, -16
	movq	%rsp, %rbp
	.cfi_def_cfa_register 6
	subq	$16, %rsp
	movq	%rdi, -8(%rbp)
	movq	-8(%rbp), %rax
	movq	%rax, %rdi
	call	_ZNSt8functionIFbiEED1Ev
	nop
	leave
	.cfi_def_cfa 7, 8
	ret
	.cfi_endproc
.LFE3999:
	.size	_ZZN11fp_specific10int_filterESt8functionIFbiEESt6vectorIiSaIiEEENUlS5_iE_D2Ev, .-_ZZN11fp_specific10int_filterESt8functionIFbiEESt6vectorIiSaIiEEENUlS5_iE_D2Ev
	.set	_ZZN11fp_specific10int_filterESt8functionIFbiEESt6vectorIiSaIiEEENUlS5_iE_D1Ev,_ZZN11fp_specific10int_filterESt8functionIFbiEESt6vectorIiSaIiEEENUlS5_iE_D2Ev
	.globl	_ZN11fp_specific10int_filterESt8functionIFbiEESt6vectorIiSaIiEE
	.type	_ZN11fp_specific10int_filterESt8functionIFbiEESt6vectorIiSaIiEE, @function
_ZN11fp_specific10int_filterESt8functionIFbiEESt6vectorIiSaIiEE:
.LFB3993:
	.cfi_startproc
	.cfi_personality 0x9b,DW.ref.__gxx_personality_v0
	.cfi_lsda 0x1b,.LLSDA3993
	pushq	%rbp
	.cfi_def_cfa_offset 16
	.cfi_offset 6, -16
	movq	%rsp, %rbp
	.cfi_def_cfa_register 6
	pushq	%rbx
	subq	$184, %rsp
	.cfi_offset 3, -24
	movq	%rdi, -168(%rbp)
	movq	%rsi, -176(%rbp)
	movq	%rdx, -184(%rbp)
	movq	%fs:40, %rax
	movq	%rax, -24(%rbp)
	xorl	%eax, %eax
	pxor	%xmm0, %xmm0
	movaps	%xmm0, -160(%rbp)
	movq	%xmm0, -144(%rbp)
	leaq	-160(%rbp), %rdx
	leaq	-96(%rbp), %rax
	movq	%rdx, %rsi
	movq	%rax, %rdi
.LEHB20:
	call	_ZNSt6vectorIiSaIiEEC1ERKS1_
.LEHE20:
	movq	-184(%rbp), %rdx
	leaq	-128(%rbp), %rax
	movq	%rdx, %rsi
	movq	%rax, %rdi
.LEHB21:
	call	_ZNSt6vectorIiSaIiEEC1ERKS1_
.LEHE21:
	movq	-176(%rbp), %rdx
	leaq	-64(%rbp), %rax
	movq	%rdx, %rsi
	movq	%rax, %rdi
.LEHB22:
	call	_ZNSt8functionIFbiEEC1ERKS1_
.LEHE22:
	movq	-168(%rbp), %rax
	leaq	-96(%rbp), %rcx
	leaq	-128(%rbp), %rdx
	leaq	-64(%rbp), %rsi
	movq	%rax, %rdi
.LEHB23:
	call	_ZN2fp6reduceIZN11fp_specific10int_filterESt8functionIFbiEESt6vectorIiSaIiEEEUlS7_iE_S7_S7_EET1_T_T0_S9_
.LEHE23:
	nop
	leaq	-64(%rbp), %rax
	movq	%rax, %rdi
	call	_ZZN11fp_specific10int_filterESt8functionIFbiEESt6vectorIiSaIiEEENUlS5_iE_D1Ev
	leaq	-128(%rbp), %rax
	movq	%rax, %rdi
	call	_ZNSt6vectorIiSaIiEED1Ev
	leaq	-96(%rbp), %rax
	movq	%rax, %rdi
	call	_ZNSt6vectorIiSaIiEED1Ev
	leaq	-160(%rbp), %rax
	movq	%rax, %rdi
	call	_ZNSt6vectorIiSaIiEED1Ev
	nop
	movq	-24(%rbp), %rax
	subq	%fs:40, %rax
	je	.L120
	jmp	.L125
.L124:
	movq	%rax, %rbx
	leaq	-64(%rbp), %rax
	movq	%rax, %rdi
	call	_ZZN11fp_specific10int_filterESt8functionIFbiEESt6vectorIiSaIiEEENUlS5_iE_D1Ev
	jmp	.L116
.L123:
	movq	%rax, %rbx
.L116:
	leaq	-128(%rbp), %rax
	movq	%rax, %rdi
	call	_ZNSt6vectorIiSaIiEED1Ev
	jmp	.L117
.L122:
	movq	%rax, %rbx
.L117:
	leaq	-96(%rbp), %rax
	movq	%rax, %rdi
	call	_ZNSt6vectorIiSaIiEED1Ev
	jmp	.L118
.L121:
	movq	%rax, %rbx
.L118:
	leaq	-160(%rbp), %rax
	movq	%rax, %rdi
	call	_ZNSt6vectorIiSaIiEED1Ev
	movq	%rbx, %rax
	movq	-24(%rbp), %rdx
	subq	%fs:40, %rdx
	je	.L119
	call	__stack_chk_fail@PLT
.L119:
	movq	%rax, %rdi
.LEHB24:
	call	_Unwind_Resume@PLT
.LEHE24:
.L125:
	call	__stack_chk_fail@PLT
.L120:
	movq	-168(%rbp), %rax
	movq	-8(%rbp), %rbx
	leave
	.cfi_def_cfa 7, 8
	ret
	.cfi_endproc
.LFE3993:
	.section	.gcc_except_table
.LLSDA3993:
	.byte	0xff
	.byte	0xff
	.byte	0x1
	.uleb128 .LLSDACSE3993-.LLSDACSB3993
.LLSDACSB3993:
	.uleb128 .LEHB20-.LFB3993
	.uleb128 .LEHE20-.LEHB20
	.uleb128 .L121-.LFB3993
	.uleb128 0
	.uleb128 .LEHB21-.LFB3993
	.uleb128 .LEHE21-.LEHB21
	.uleb128 .L122-.LFB3993
	.uleb128 0
	.uleb128 .LEHB22-.LFB3993
	.uleb128 .LEHE22-.LEHB22
	.uleb128 .L123-.LFB3993
	.uleb128 0
	.uleb128 .LEHB23-.LFB3993
	.uleb128 .LEHE23-.LEHB23
	.uleb128 .L124-.LFB3993
	.uleb128 0
	.uleb128 .LEHB24-.LFB3993
	.uleb128 .LEHE24-.LEHB24
	.uleb128 0
	.uleb128 0
.LLSDACSE3993:
	.text
	.size	_ZN11fp_specific10int_filterESt8functionIFbiEESt6vectorIiSaIiEE, .-_ZN11fp_specific10int_filterESt8functionIFbiEESt6vectorIiSaIiEE
	.align 2
	.type	_ZZN11fp_specific11long_filterESt8functionIFblEESt6vectorIlSaIlEEENKUlS5_lE_clES5_l, @function
_ZZN11fp_specific11long_filterESt8functionIFblEESt6vectorIlSaIlEEENKUlS5_lE_clES5_l:
.LFB4002:
	.cfi_startproc
	pushq	%rbp
	.cfi_def_cfa_offset 16
	.cfi_offset 6, -16
	movq	%rsp, %rbp
	.cfi_def_cfa_register 6
	subq	$32, %rsp
	movq	%rdi, -8(%rbp)
	movq	%rsi, -16(%rbp)
	movq	%rdx, -24(%rbp)
	movq	%rcx, -32(%rbp)
	movq	-16(%rbp), %rax
	movq	-32(%rbp), %rdx
	movq	%rdx, %rsi
	movq	%rax, %rdi
	call	_ZNKSt8functionIFblEEclEl
	testb	%al, %al
	je	.L127
	leaq	-32(%rbp), %rdx
	movq	-24(%rbp), %rax
	movq	%rdx, %rsi
	movq	%rax, %rdi
	call	_ZNSt6vectorIlSaIlEE9push_backERKl
.L127:
	movq	-24(%rbp), %rdx
	movq	-8(%rbp), %rax
	movq	%rdx, %rsi
	movq	%rax, %rdi
	call	_ZNSt6vectorIlSaIlEEC1EOS1_
	movq	-8(%rbp), %rax
	leave
	.cfi_def_cfa 7, 8
	ret
	.cfi_endproc
.LFE4002:
	.size	_ZZN11fp_specific11long_filterESt8functionIFblEESt6vectorIlSaIlEEENKUlS5_lE_clES5_l, .-_ZZN11fp_specific11long_filterESt8functionIFblEESt6vectorIlSaIlEEENKUlS5_lE_clES5_l
	.section	.text._ZNSt8functionIFblEED2Ev,"axG",@progbits,_ZNSt8functionIFblEED5Ev,comdat
	.align 2
	.weak	_ZNSt8functionIFblEED2Ev
	.type	_ZNSt8functionIFblEED2Ev, @function
_ZNSt8functionIFblEED2Ev:
.LFB4004:
	.cfi_startproc
	pushq	%rbp
	.cfi_def_cfa_offset 16
	.cfi_offset 6, -16
	movq	%rsp, %rbp
	.cfi_def_cfa_register 6
	subq	$16, %rsp
	movq	%rdi, -8(%rbp)
	movq	-8(%rbp), %rax
	movq	%rax, %rdi
	call	_ZNSt14_Function_baseD2Ev
	nop
	leave
	.cfi_def_cfa 7, 8
	ret
	.cfi_endproc
.LFE4004:
	.size	_ZNSt8functionIFblEED2Ev, .-_ZNSt8functionIFblEED2Ev
	.weak	_ZNSt8functionIFblEED1Ev
	.set	_ZNSt8functionIFblEED1Ev,_ZNSt8functionIFblEED2Ev
	.text
	.align 2
	.type	_ZZN11fp_specific11long_filterESt8functionIFblEESt6vectorIlSaIlEEENUlS5_lE_D2Ev, @function
_ZZN11fp_specific11long_filterESt8functionIFblEESt6vectorIlSaIlEEENUlS5_lE_D2Ev:
.LFB4007:
	.cfi_startproc
	pushq	%rbp
	.cfi_def_cfa_offset 16
	.cfi_offset 6, -16
	movq	%rsp, %rbp
	.cfi_def_cfa_register 6
	subq	$16, %rsp
	movq	%rdi, -8(%rbp)
	movq	-8(%rbp), %rax
	movq	%rax, %rdi
	call	_ZNSt8functionIFblEED1Ev
	nop
	leave
	.cfi_def_cfa 7, 8
	ret
	.cfi_endproc
.LFE4007:
	.size	_ZZN11fp_specific11long_filterESt8functionIFblEESt6vectorIlSaIlEEENUlS5_lE_D2Ev, .-_ZZN11fp_specific11long_filterESt8functionIFblEESt6vectorIlSaIlEEENUlS5_lE_D2Ev
	.set	_ZZN11fp_specific11long_filterESt8functionIFblEESt6vectorIlSaIlEEENUlS5_lE_D1Ev,_ZZN11fp_specific11long_filterESt8functionIFblEESt6vectorIlSaIlEEENUlS5_lE_D2Ev
	.globl	_ZN11fp_specific11long_filterESt8functionIFblEESt6vectorIlSaIlEE
	.type	_ZN11fp_specific11long_filterESt8functionIFblEESt6vectorIlSaIlEE, @function
_ZN11fp_specific11long_filterESt8functionIFblEESt6vectorIlSaIlEE:
.LFB4001:
	.cfi_startproc
	.cfi_personality 0x9b,DW.ref.__gxx_personality_v0
	.cfi_lsda 0x1b,.LLSDA4001
	pushq	%rbp
	.cfi_def_cfa_offset 16
	.cfi_offset 6, -16
	movq	%rsp, %rbp
	.cfi_def_cfa_register 6
	pushq	%rbx
	subq	$184, %rsp
	.cfi_offset 3, -24
	movq	%rdi, -168(%rbp)
	movq	%rsi, -176(%rbp)
	movq	%rdx, -184(%rbp)
	movq	%fs:40, %rax
	movq	%rax, -24(%rbp)
	xorl	%eax, %eax
	pxor	%xmm0, %xmm0
	movaps	%xmm0, -160(%rbp)
	movq	%xmm0, -144(%rbp)
	leaq	-160(%rbp), %rdx
	leaq	-96(%rbp), %rax
	movq	%rdx, %rsi
	movq	%rax, %rdi
.LEHB25:
	call	_ZNSt6vectorIlSaIlEEC1ERKS1_
.LEHE25:
	movq	-184(%rbp), %rdx
	leaq	-128(%rbp), %rax
	movq	%rdx, %rsi
	movq	%rax, %rdi
.LEHB26:
	call	_ZNSt6vectorIlSaIlEEC1ERKS1_
.LEHE26:
	movq	-176(%rbp), %rdx
	leaq	-64(%rbp), %rax
	movq	%rdx, %rsi
	movq	%rax, %rdi
.LEHB27:
	call	_ZNSt8functionIFblEEC1ERKS1_
.LEHE27:
	movq	-168(%rbp), %rax
	leaq	-96(%rbp), %rcx
	leaq	-128(%rbp), %rdx
	leaq	-64(%rbp), %rsi
	movq	%rax, %rdi
.LEHB28:
	call	_ZN2fp6reduceIZN11fp_specific11long_filterESt8functionIFblEESt6vectorIlSaIlEEEUlS7_lE_S7_S7_EET1_T_T0_S9_
.LEHE28:
	nop
	leaq	-64(%rbp), %rax
	movq	%rax, %rdi
	call	_ZZN11fp_specific11long_filterESt8functionIFblEESt6vectorIlSaIlEEENUlS5_lE_D1Ev
	leaq	-128(%rbp), %rax
	movq	%rax, %rdi
	call	_ZNSt6vectorIlSaIlEED1Ev
	leaq	-96(%rbp), %rax
	movq	%rax, %rdi
	call	_ZNSt6vectorIlSaIlEED1Ev
	leaq	-160(%rbp), %rax
	movq	%rax, %rdi
	call	_ZNSt6vectorIlSaIlEED1Ev
	nop
	movq	-24(%rbp), %rax
	subq	%fs:40, %rax
	je	.L138
	jmp	.L143
.L142:
	movq	%rax, %rbx
	leaq	-64(%rbp), %rax
	movq	%rax, %rdi
	call	_ZZN11fp_specific11long_filterESt8functionIFblEESt6vectorIlSaIlEEENUlS5_lE_D1Ev
	jmp	.L134
.L141:
	movq	%rax, %rbx
.L134:
	leaq	-128(%rbp), %rax
	movq	%rax, %rdi
	call	_ZNSt6vectorIlSaIlEED1Ev
	jmp	.L135
.L140:
	movq	%rax, %rbx
.L135:
	leaq	-96(%rbp), %rax
	movq	%rax, %rdi
	call	_ZNSt6vectorIlSaIlEED1Ev
	jmp	.L136
.L139:
	movq	%rax, %rbx
.L136:
	leaq	-160(%rbp), %rax
	movq	%rax, %rdi
	call	_ZNSt6vectorIlSaIlEED1Ev
	movq	%rbx, %rax
	movq	-24(%rbp), %rdx
	subq	%fs:40, %rdx
	je	.L137
	call	__stack_chk_fail@PLT
.L137:
	movq	%rax, %rdi
.LEHB29:
	call	_Unwind_Resume@PLT
.LEHE29:
.L143:
	call	__stack_chk_fail@PLT
.L138:
	movq	-168(%rbp), %rax
	movq	-8(%rbp), %rbx
	leave
	.cfi_def_cfa 7, 8
	ret
	.cfi_endproc
.LFE4001:
	.section	.gcc_except_table
.LLSDA4001:
	.byte	0xff
	.byte	0xff
	.byte	0x1
	.uleb128 .LLSDACSE4001-.LLSDACSB4001
.LLSDACSB4001:
	.uleb128 .LEHB25-.LFB4001
	.uleb128 .LEHE25-.LEHB25
	.uleb128 .L139-.LFB4001
	.uleb128 0
	.uleb128 .LEHB26-.LFB4001
	.uleb128 .LEHE26-.LEHB26
	.uleb128 .L140-.LFB4001
	.uleb128 0
	.uleb128 .LEHB27-.LFB4001
	.uleb128 .LEHE27-.LEHB27
	.uleb128 .L141-.LFB4001
	.uleb128 0
	.uleb128 .LEHB28-.LFB4001
	.uleb128 .LEHE28-.LEHB28
	.uleb128 .L142-.LFB4001
	.uleb128 0
	.uleb128 .LEHB29-.LFB4001
	.uleb128 .LEHE29-.LEHB29
	.uleb128 0
	.uleb128 0
.LLSDACSE4001:
	.text
	.size	_ZN11fp_specific11long_filterESt8functionIFblEESt6vectorIlSaIlEE, .-_ZN11fp_specific11long_filterESt8functionIFblEESt6vectorIlSaIlEE
	.align 2
	.type	_ZZN11fp_specific13double_filterESt8functionIFbdEESt6vectorIdSaIdEEENKUlS5_dE_clES5_d, @function
_ZZN11fp_specific13double_filterESt8functionIFbdEESt6vectorIdSaIdEEENKUlS5_dE_clES5_d:
.LFB4010:
	.cfi_startproc
	pushq	%rbp
	.cfi_def_cfa_offset 16
	.cfi_offset 6, -16
	movq	%rsp, %rbp
	.cfi_def_cfa_register 6
	subq	$32, %rsp
	movq	%rdi, -8(%rbp)
	movq	%rsi, -16(%rbp)
	movq	%rdx, -24(%rbp)
	movsd	%xmm0, -32(%rbp)
	movq	-16(%rbp), %rax
	movq	-32(%rbp), %rdx
	movq	%rdx, %xmm0
	movq	%rax, %rdi
	call	_ZNKSt8functionIFbdEEclEd
	testb	%al, %al
	je	.L145
	leaq	-32(%rbp), %rdx
	movq	-24(%rbp), %rax
	movq	%rdx, %rsi
	movq	%rax, %rdi
	call	_ZNSt6vectorIdSaIdEE9push_backERKd
.L145:
	movq	-24(%rbp), %rdx
	movq	-8(%rbp), %rax
	movq	%rdx, %rsi
	movq	%rax, %rdi
	call	_ZNSt6vectorIdSaIdEEC1EOS1_
	movq	-8(%rbp), %rax
	leave
	.cfi_def_cfa 7, 8
	ret
	.cfi_endproc
.LFE4010:
	.size	_ZZN11fp_specific13double_filterESt8functionIFbdEESt6vectorIdSaIdEEENKUlS5_dE_clES5_d, .-_ZZN11fp_specific13double_filterESt8functionIFbdEESt6vectorIdSaIdEEENKUlS5_dE_clES5_d
	.section	.text._ZNSt8functionIFbdEED2Ev,"axG",@progbits,_ZNSt8functionIFbdEED5Ev,comdat
	.align 2
	.weak	_ZNSt8functionIFbdEED2Ev
	.type	_ZNSt8functionIFbdEED2Ev, @function
_ZNSt8functionIFbdEED2Ev:
.LFB4012:
	.cfi_startproc
	pushq	%rbp
	.cfi_def_cfa_offset 16
	.cfi_offset 6, -16
	movq	%rsp, %rbp
	.cfi_def_cfa_register 6
	subq	$16, %rsp
	movq	%rdi, -8(%rbp)
	movq	-8(%rbp), %rax
	movq	%rax, %rdi
	call	_ZNSt14_Function_baseD2Ev
	nop
	leave
	.cfi_def_cfa 7, 8
	ret
	.cfi_endproc
.LFE4012:
	.size	_ZNSt8functionIFbdEED2Ev, .-_ZNSt8functionIFbdEED2Ev
	.weak	_ZNSt8functionIFbdEED1Ev
	.set	_ZNSt8functionIFbdEED1Ev,_ZNSt8functionIFbdEED2Ev
	.text
	.align 2
	.type	_ZZN11fp_specific13double_filterESt8functionIFbdEESt6vectorIdSaIdEEENUlS5_dE_D2Ev, @function
_ZZN11fp_specific13double_filterESt8functionIFbdEESt6vectorIdSaIdEEENUlS5_dE_D2Ev:
.LFB4015:
	.cfi_startproc
	pushq	%rbp
	.cfi_def_cfa_offset 16
	.cfi_offset 6, -16
	movq	%rsp, %rbp
	.cfi_def_cfa_register 6
	subq	$16, %rsp
	movq	%rdi, -8(%rbp)
	movq	-8(%rbp), %rax
	movq	%rax, %rdi
	call	_ZNSt8functionIFbdEED1Ev
	nop
	leave
	.cfi_def_cfa 7, 8
	ret
	.cfi_endproc
.LFE4015:
	.size	_ZZN11fp_specific13double_filterESt8functionIFbdEESt6vectorIdSaIdEEENUlS5_dE_D2Ev, .-_ZZN11fp_specific13double_filterESt8functionIFbdEESt6vectorIdSaIdEEENUlS5_dE_D2Ev
	.set	_ZZN11fp_specific13double_filterESt8functionIFbdEESt6vectorIdSaIdEEENUlS5_dE_D1Ev,_ZZN11fp_specific13double_filterESt8functionIFbdEESt6vectorIdSaIdEEENUlS5_dE_D2Ev
	.globl	_ZN11fp_specific13double_filterESt8functionIFbdEESt6vectorIdSaIdEE
	.type	_ZN11fp_specific13double_filterESt8functionIFbdEESt6vectorIdSaIdEE, @function
_ZN11fp_specific13double_filterESt8functionIFbdEESt6vectorIdSaIdEE:
.LFB4009:
	.cfi_startproc
	.cfi_personality 0x9b,DW.ref.__gxx_personality_v0
	.cfi_lsda 0x1b,.LLSDA4009
	pushq	%rbp
	.cfi_def_cfa_offset 16
	.cfi_offset 6, -16
	movq	%rsp, %rbp
	.cfi_def_cfa_register 6
	pushq	%rbx
	subq	$184, %rsp
	.cfi_offset 3, -24
	movq	%rdi, -168(%rbp)
	movq	%rsi, -176(%rbp)
	movq	%rdx, -184(%rbp)
	movq	%fs:40, %rax
	movq	%rax, -24(%rbp)
	xorl	%eax, %eax
	pxor	%xmm0, %xmm0
	movaps	%xmm0, -160(%rbp)
	movq	%xmm0, -144(%rbp)
	leaq	-160(%rbp), %rdx
	leaq	-96(%rbp), %rax
	movq	%rdx, %rsi
	movq	%rax, %rdi
.LEHB30:
	call	_ZNSt6vectorIdSaIdEEC1ERKS1_
.LEHE30:
	movq	-184(%rbp), %rdx
	leaq	-128(%rbp), %rax
	movq	%rdx, %rsi
	movq	%rax, %rdi
.LEHB31:
	call	_ZNSt6vectorIdSaIdEEC1ERKS1_
.LEHE31:
	movq	-176(%rbp), %rdx
	leaq	-64(%rbp), %rax
	movq	%rdx, %rsi
	movq	%rax, %rdi
.LEHB32:
	call	_ZNSt8functionIFbdEEC1ERKS1_
.LEHE32:
	movq	-168(%rbp), %rax
	leaq	-96(%rbp), %rcx
	leaq	-128(%rbp), %rdx
	leaq	-64(%rbp), %rsi
	movq	%rax, %rdi
.LEHB33:
	call	_ZN2fp6reduceIZN11fp_specific13double_filterESt8functionIFbdEESt6vectorIdSaIdEEEUlS7_dE_S7_S7_EET1_T_T0_S9_
.LEHE33:
	nop
	leaq	-64(%rbp), %rax
	movq	%rax, %rdi
	call	_ZZN11fp_specific13double_filterESt8functionIFbdEESt6vectorIdSaIdEEENUlS5_dE_D1Ev
	leaq	-128(%rbp), %rax
	movq	%rax, %rdi
	call	_ZNSt6vectorIdSaIdEED1Ev
	leaq	-96(%rbp), %rax
	movq	%rax, %rdi
	call	_ZNSt6vectorIdSaIdEED1Ev
	leaq	-160(%rbp), %rax
	movq	%rax, %rdi
	call	_ZNSt6vectorIdSaIdEED1Ev
	nop
	movq	-24(%rbp), %rax
	subq	%fs:40, %rax
	je	.L156
	jmp	.L161
.L160:
	movq	%rax, %rbx
	leaq	-64(%rbp), %rax
	movq	%rax, %rdi
	call	_ZZN11fp_specific13double_filterESt8functionIFbdEESt6vectorIdSaIdEEENUlS5_dE_D1Ev
	jmp	.L152
.L159:
	movq	%rax, %rbx
.L152:
	leaq	-128(%rbp), %rax
	movq	%rax, %rdi
	call	_ZNSt6vectorIdSaIdEED1Ev
	jmp	.L153
.L158:
	movq	%rax, %rbx
.L153:
	leaq	-96(%rbp), %rax
	movq	%rax, %rdi
	call	_ZNSt6vectorIdSaIdEED1Ev
	jmp	.L154
.L157:
	movq	%rax, %rbx
.L154:
	leaq	-160(%rbp), %rax
	movq	%rax, %rdi
	call	_ZNSt6vectorIdSaIdEED1Ev
	movq	%rbx, %rax
	movq	-24(%rbp), %rdx
	subq	%fs:40, %rdx
	je	.L155
	call	__stack_chk_fail@PLT
.L155:
	movq	%rax, %rdi
.LEHB34:
	call	_Unwind_Resume@PLT
.LEHE34:
.L161:
	call	__stack_chk_fail@PLT
.L156:
	movq	-168(%rbp), %rax
	movq	-8(%rbp), %rbx
	leave
	.cfi_def_cfa 7, 8
	ret
	.cfi_endproc
.LFE4009:
	.section	.gcc_except_table
.LLSDA4009:
	.byte	0xff
	.byte	0xff
	.byte	0x1
	.uleb128 .LLSDACSE4009-.LLSDACSB4009
.LLSDACSB4009:
	.uleb128 .LEHB30-.LFB4009
	.uleb128 .LEHE30-.LEHB30
	.uleb128 .L157-.LFB4009
	.uleb128 0
	.uleb128 .LEHB31-.LFB4009
	.uleb128 .LEHE31-.LEHB31
	.uleb128 .L158-.LFB4009
	.uleb128 0
	.uleb128 .LEHB32-.LFB4009
	.uleb128 .LEHE32-.LEHB32
	.uleb128 .L159-.LFB4009
	.uleb128 0
	.uleb128 .LEHB33-.LFB4009
	.uleb128 .LEHE33-.LEHB33
	.uleb128 .L160-.LFB4009
	.uleb128 0
	.uleb128 .LEHB34-.LFB4009
	.uleb128 .LEHE34-.LEHB34
	.uleb128 0
	.uleb128 0
.LLSDACSE4009:
	.text
	.size	_ZN11fp_specific13double_filterESt8functionIFbdEESt6vectorIdSaIdEE, .-_ZN11fp_specific13double_filterESt8functionIFbdEESt6vectorIdSaIdEE
	.align 2
	.type	_ZZN11fp_specific12float_filterESt8functionIFbfEESt6vectorIfSaIfEEENKUlS5_fE_clES5_f, @function
_ZZN11fp_specific12float_filterESt8functionIFbfEESt6vectorIfSaIfEEENKUlS5_fE_clES5_f:
.LFB4018:
	.cfi_startproc
	pushq	%rbp
	.cfi_def_cfa_offset 16
	.cfi_offset 6, -16
	movq	%rsp, %rbp
	.cfi_def_cfa_register 6
	subq	$32, %rsp
	movq	%rdi, -8(%rbp)
	movq	%rsi, -16(%rbp)
	movq	%rdx, -24(%rbp)
	movss	%xmm0, -28(%rbp)
	movq	-16(%rbp), %rax
	movl	-28(%rbp), %edx
	movd	%edx, %xmm0
	movq	%rax, %rdi
	call	_ZNKSt8functionIFbfEEclEf
	testb	%al, %al
	je	.L163
	leaq	-28(%rbp), %rdx
	movq	-24(%rbp), %rax
	movq	%rdx, %rsi
	movq	%rax, %rdi
	call	_ZNSt6vectorIfSaIfEE9push_backERKf
.L163:
	movq	-24(%rbp), %rdx
	movq	-8(%rbp), %rax
	movq	%rdx, %rsi
	movq	%rax, %rdi
	call	_ZNSt6vectorIfSaIfEEC1EOS1_
	movq	-8(%rbp), %rax
	leave
	.cfi_def_cfa 7, 8
	ret
	.cfi_endproc
.LFE4018:
	.size	_ZZN11fp_specific12float_filterESt8functionIFbfEESt6vectorIfSaIfEEENKUlS5_fE_clES5_f, .-_ZZN11fp_specific12float_filterESt8functionIFbfEESt6vectorIfSaIfEEENKUlS5_fE_clES5_f
	.section	.text._ZNSt8functionIFbfEED2Ev,"axG",@progbits,_ZNSt8functionIFbfEED5Ev,comdat
	.align 2
	.weak	_ZNSt8functionIFbfEED2Ev
	.type	_ZNSt8functionIFbfEED2Ev, @function
_ZNSt8functionIFbfEED2Ev:
.LFB4020:
	.cfi_startproc
	pushq	%rbp
	.cfi_def_cfa_offset 16
	.cfi_offset 6, -16
	movq	%rsp, %rbp
	.cfi_def_cfa_register 6
	subq	$16, %rsp
	movq	%rdi, -8(%rbp)
	movq	-8(%rbp), %rax
	movq	%rax, %rdi
	call	_ZNSt14_Function_baseD2Ev
	nop
	leave
	.cfi_def_cfa 7, 8
	ret
	.cfi_endproc
.LFE4020:
	.size	_ZNSt8functionIFbfEED2Ev, .-_ZNSt8functionIFbfEED2Ev
	.weak	_ZNSt8functionIFbfEED1Ev
	.set	_ZNSt8functionIFbfEED1Ev,_ZNSt8functionIFbfEED2Ev
	.text
	.align 2
	.type	_ZZN11fp_specific12float_filterESt8functionIFbfEESt6vectorIfSaIfEEENUlS5_fE_D2Ev, @function
_ZZN11fp_specific12float_filterESt8functionIFbfEESt6vectorIfSaIfEEENUlS5_fE_D2Ev:
.LFB4023:
	.cfi_startproc
	pushq	%rbp
	.cfi_def_cfa_offset 16
	.cfi_offset 6, -16
	movq	%rsp, %rbp
	.cfi_def_cfa_register 6
	subq	$16, %rsp
	movq	%rdi, -8(%rbp)
	movq	-8(%rbp), %rax
	movq	%rax, %rdi
	call	_ZNSt8functionIFbfEED1Ev
	nop
	leave
	.cfi_def_cfa 7, 8
	ret
	.cfi_endproc
.LFE4023:
	.size	_ZZN11fp_specific12float_filterESt8functionIFbfEESt6vectorIfSaIfEEENUlS5_fE_D2Ev, .-_ZZN11fp_specific12float_filterESt8functionIFbfEESt6vectorIfSaIfEEENUlS5_fE_D2Ev
	.set	_ZZN11fp_specific12float_filterESt8functionIFbfEESt6vectorIfSaIfEEENUlS5_fE_D1Ev,_ZZN11fp_specific12float_filterESt8functionIFbfEESt6vectorIfSaIfEEENUlS5_fE_D2Ev
	.globl	_ZN11fp_specific12float_filterESt8functionIFbfEESt6vectorIfSaIfEE
	.type	_ZN11fp_specific12float_filterESt8functionIFbfEESt6vectorIfSaIfEE, @function
_ZN11fp_specific12float_filterESt8functionIFbfEESt6vectorIfSaIfEE:
.LFB4017:
	.cfi_startproc
	.cfi_personality 0x9b,DW.ref.__gxx_personality_v0
	.cfi_lsda 0x1b,.LLSDA4017
	pushq	%rbp
	.cfi_def_cfa_offset 16
	.cfi_offset 6, -16
	movq	%rsp, %rbp
	.cfi_def_cfa_register 6
	pushq	%rbx
	subq	$184, %rsp
	.cfi_offset 3, -24
	movq	%rdi, -168(%rbp)
	movq	%rsi, -176(%rbp)
	movq	%rdx, -184(%rbp)
	movq	%fs:40, %rax
	movq	%rax, -24(%rbp)
	xorl	%eax, %eax
	pxor	%xmm0, %xmm0
	movaps	%xmm0, -160(%rbp)
	movq	%xmm0, -144(%rbp)
	leaq	-160(%rbp), %rdx
	leaq	-96(%rbp), %rax
	movq	%rdx, %rsi
	movq	%rax, %rdi
.LEHB35:
	call	_ZNSt6vectorIfSaIfEEC1ERKS1_
.LEHE35:
	movq	-184(%rbp), %rdx
	leaq	-128(%rbp), %rax
	movq	%rdx, %rsi
	movq	%rax, %rdi
.LEHB36:
	call	_ZNSt6vectorIfSaIfEEC1ERKS1_
.LEHE36:
	movq	-176(%rbp), %rdx
	leaq	-64(%rbp), %rax
	movq	%rdx, %rsi
	movq	%rax, %rdi
.LEHB37:
	call	_ZNSt8functionIFbfEEC1ERKS1_
.LEHE37:
	movq	-168(%rbp), %rax
	leaq	-96(%rbp), %rcx
	leaq	-128(%rbp), %rdx
	leaq	-64(%rbp), %rsi
	movq	%rax, %rdi
.LEHB38:
	call	_ZN2fp6reduceIZN11fp_specific12float_filterESt8functionIFbfEESt6vectorIfSaIfEEEUlS7_fE_S7_S7_EET1_T_T0_S9_
.LEHE38:
	nop
	leaq	-64(%rbp), %rax
	movq	%rax, %rdi
	call	_ZZN11fp_specific12float_filterESt8functionIFbfEESt6vectorIfSaIfEEENUlS5_fE_D1Ev
	leaq	-128(%rbp), %rax
	movq	%rax, %rdi
	call	_ZNSt6vectorIfSaIfEED1Ev
	leaq	-96(%rbp), %rax
	movq	%rax, %rdi
	call	_ZNSt6vectorIfSaIfEED1Ev
	leaq	-160(%rbp), %rax
	movq	%rax, %rdi
	call	_ZNSt6vectorIfSaIfEED1Ev
	nop
	movq	-24(%rbp), %rax
	subq	%fs:40, %rax
	je	.L174
	jmp	.L179
.L178:
	movq	%rax, %rbx
	leaq	-64(%rbp), %rax
	movq	%rax, %rdi
	call	_ZZN11fp_specific12float_filterESt8functionIFbfEESt6vectorIfSaIfEEENUlS5_fE_D1Ev
	jmp	.L170
.L177:
	movq	%rax, %rbx
.L170:
	leaq	-128(%rbp), %rax
	movq	%rax, %rdi
	call	_ZNSt6vectorIfSaIfEED1Ev
	jmp	.L171
.L176:
	movq	%rax, %rbx
.L171:
	leaq	-96(%rbp), %rax
	movq	%rax, %rdi
	call	_ZNSt6vectorIfSaIfEED1Ev
	jmp	.L172
.L175:
	movq	%rax, %rbx
.L172:
	leaq	-160(%rbp), %rax
	movq	%rax, %rdi
	call	_ZNSt6vectorIfSaIfEED1Ev
	movq	%rbx, %rax
	movq	-24(%rbp), %rdx
	subq	%fs:40, %rdx
	je	.L173
	call	__stack_chk_fail@PLT
.L173:
	movq	%rax, %rdi
.LEHB39:
	call	_Unwind_Resume@PLT
.LEHE39:
.L179:
	call	__stack_chk_fail@PLT
.L174:
	movq	-168(%rbp), %rax
	movq	-8(%rbp), %rbx
	leave
	.cfi_def_cfa 7, 8
	ret
	.cfi_endproc
.LFE4017:
	.section	.gcc_except_table
.LLSDA4017:
	.byte	0xff
	.byte	0xff
	.byte	0x1
	.uleb128 .LLSDACSE4017-.LLSDACSB4017
.LLSDACSB4017:
	.uleb128 .LEHB35-.LFB4017
	.uleb128 .LEHE35-.LEHB35
	.uleb128 .L175-.LFB4017
	.uleb128 0
	.uleb128 .LEHB36-.LFB4017
	.uleb128 .LEHE36-.LEHB36
	.uleb128 .L176-.LFB4017
	.uleb128 0
	.uleb128 .LEHB37-.LFB4017
	.uleb128 .LEHE37-.LEHB37
	.uleb128 .L177-.LFB4017
	.uleb128 0
	.uleb128 .LEHB38-.LFB4017
	.uleb128 .LEHE38-.LEHB38
	.uleb128 .L178-.LFB4017
	.uleb128 0
	.uleb128 .LEHB39-.LFB4017
	.uleb128 .LEHE39-.LEHB39
	.uleb128 0
	.uleb128 0
.LLSDACSE4017:
	.text
	.size	_ZN11fp_specific12float_filterESt8functionIFbfEESt6vectorIfSaIfEE, .-_ZN11fp_specific12float_filterESt8functionIFbfEESt6vectorIfSaIfEE
	.globl	_ZN4util3maxEi
	.type	_ZN4util3maxEi, @function
_ZN4util3maxEi:
.LFB4029:
	.cfi_startproc
	pushq	%rbp
	.cfi_def_cfa_offset 16
	.cfi_offset 6, -16
	movq	%rsp, %rbp
	.cfi_def_cfa_register 6
	movl	%edi, -4(%rbp)
	movl	-4(%rbp), %eax
	popq	%rbp
	.cfi_def_cfa 7, 8
	ret
	.cfi_endproc
.LFE4029:
	.size	_ZN4util3maxEi, .-_ZN4util3maxEi
	.globl	_Z4add2i
	.type	_Z4add2i, @function
_Z4add2i:
.LFB4033:
	.cfi_startproc
	pushq	%rbp
	.cfi_def_cfa_offset 16
	.cfi_offset 6, -16
	movq	%rsp, %rbp
	.cfi_def_cfa_register 6
	movl	%edi, -4(%rbp)
	movl	-4(%rbp), %eax
	addl	$2, %eax
	popq	%rbp
	.cfi_def_cfa 7, 8
	ret
	.cfi_endproc
.LFE4033:
	.size	_Z4add2i, .-_Z4add2i
	.globl	_Z7is_eveni
	.type	_Z7is_eveni, @function
_Z7is_eveni:
.LFB4034:
	.cfi_startproc
	pushq	%rbp
	.cfi_def_cfa_offset 16
	.cfi_offset 6, -16
	movq	%rsp, %rbp
	.cfi_def_cfa_register 6
	movl	%edi, -4(%rbp)
	movl	-4(%rbp), %eax
	andl	$1, %eax
	testl	%eax, %eax
	sete	%al
	popq	%rbp
	.cfi_def_cfa 7, 8
	ret
	.cfi_endproc
.LFE4034:
	.size	_Z7is_eveni, .-_Z7is_eveni
	.section	.text._ZNSt6vectorIlSaIlEEC1ESt16initializer_listIlERKS0_,"axG",@progbits,_ZNSt6vectorIlSaIlEEC1ESt16initializer_listIlERKS0_,comdat
	.align 2
	.weak	_ZNSt6vectorIlSaIlEEC1ESt16initializer_listIlERKS0_
	.type	_ZNSt6vectorIlSaIlEEC1ESt16initializer_listIlERKS0_, @function
_ZNSt6vectorIlSaIlEEC1ESt16initializer_listIlERKS0_:
.LFB4038:
	.cfi_startproc
	.cfi_personality 0x9b,DW.ref.__gxx_personality_v0
	.cfi_lsda 0x1b,.LLSDA4038
	pushq	%rbp
	.cfi_def_cfa_offset 16
	.cfi_offset 6, -16
	movq	%rsp, %rbp
	.cfi_def_cfa_register 6
	pushq	%rbx
	subq	$56, %rsp
	.cfi_offset 3, -24
	movq	%rdi, -40(%rbp)
	movq	%rsi, %rax
	movq	%rdx, %rsi
	movq	%rsi, %rdx
	movq	%rax, -64(%rbp)
	movq	%rdx, -56(%rbp)
	movq	%rcx, -48(%rbp)
	movq	%fs:40, %rax
	movq	%rax, -24(%rbp)
	xorl	%eax, %eax
	movq	-40(%rbp), %rax
	movq	-48(%rbp), %rdx
	movq	%rdx, %rsi
	movq	%rax, %rdi
	call	_ZNSt12_Vector_baseIlSaIlEEC2ERKS0_
	leaq	-64(%rbp), %rax
	movq	%rax, %rdi
	call	_ZNKSt16initializer_listIlE3endEv
	movq	%rax, %rbx
	leaq	-64(%rbp), %rax
	movq	%rax, %rdi
	call	_ZNKSt16initializer_listIlE5beginEv
	movq	%rax, %rcx
	movq	-40(%rbp), %rax
	movq	%rbx, %rdx
	movq	%rcx, %rsi
	movq	%rax, %rdi
.LEHB40:
	call	_ZNSt6vectorIlSaIlEE19_M_range_initializeIPKlEEvT_S5_St20forward_iterator_tag
.LEHE40:
	jmp	.L191
.L190:
	movq	%rax, %rbx
	movq	-40(%rbp), %rax
	movq	%rax, %rdi
	call	_ZNSt12_Vector_baseIlSaIlEED2Ev
	movq	%rbx, %rax
	movq	-24(%rbp), %rdx
	subq	%fs:40, %rdx
	je	.L188
	call	__stack_chk_fail@PLT
.L188:
	movq	%rax, %rdi
.LEHB41:
	call	_Unwind_Resume@PLT
.LEHE41:
.L191:
	movq	-24(%rbp), %rax
	subq	%fs:40, %rax
	je	.L189
	call	__stack_chk_fail@PLT
.L189:
	movq	-8(%rbp), %rbx
	leave
	.cfi_def_cfa 7, 8
	ret
	.cfi_endproc
.LFE4038:
	.section	.gcc_except_table
.LLSDA4038:
	.byte	0xff
	.byte	0xff
	.byte	0x1
	.uleb128 .LLSDACSE4038-.LLSDACSB4038
.LLSDACSB4038:
	.uleb128 .LEHB40-.LFB4038
	.uleb128 .LEHE40-.LEHB40
	.uleb128 .L190-.LFB4038
	.uleb128 0
	.uleb128 .LEHB41-.LFB4038
	.uleb128 .LEHE41-.LEHB41
	.uleb128 0
	.uleb128 0
.LLSDACSE4038:
	.section	.text._ZNSt6vectorIlSaIlEEC1ESt16initializer_listIlERKS0_,"axG",@progbits,_ZNSt6vectorIlSaIlEEC1ESt16initializer_listIlERKS0_,comdat
	.size	_ZNSt6vectorIlSaIlEEC1ESt16initializer_listIlERKS0_, .-_ZNSt6vectorIlSaIlEEC1ESt16initializer_listIlERKS0_
	.section	.text._ZNSt12_Vector_baseIlSaIlEEC2ERKS0_,"axG",@progbits,_ZNSt12_Vector_baseIlSaIlEEC2ERKS0_,comdat
	.align 2
	.weak	_ZNSt12_Vector_baseIlSaIlEEC2ERKS0_
	.type	_ZNSt12_Vector_baseIlSaIlEEC2ERKS0_, @function
_ZNSt12_Vector_baseIlSaIlEEC2ERKS0_:
.LFB4040:
	.cfi_startproc
	pushq	%rbp
	.cfi_def_cfa_offset 16
	.cfi_offset 6, -16
	movq	%rsp, %rbp
	.cfi_def_cfa_register 6
	subq	$16, %rsp
	movq	%rdi, -8(%rbp)
	movq	%rsi, -16(%rbp)
	movq	-8(%rbp), %rax
	movq	-16(%rbp), %rdx
	movq	%rdx, %rsi
	movq	%rax, %rdi
	call	_ZNSt12_Vector_baseIlSaIlEE12_Vector_implC1ERKS0_
	nop
	leave
	.cfi_def_cfa 7, 8
	ret
	.cfi_endproc
.LFE4040:
	.size	_ZNSt12_Vector_baseIlSaIlEEC2ERKS0_, .-_ZNSt12_Vector_baseIlSaIlEEC2ERKS0_
	.section	.text._ZNSt12_Vector_baseIlSaIlEE12_Vector_implC1ERKS0_,"axG",@progbits,_ZNSt12_Vector_baseIlSaIlEE12_Vector_implC1ERKS0_,comdat
	.align 2
	.weak	_ZNSt12_Vector_baseIlSaIlEE12_Vector_implC1ERKS0_
	.type	_ZNSt12_Vector_baseIlSaIlEE12_Vector_implC1ERKS0_, @function
_ZNSt12_Vector_baseIlSaIlEE12_Vector_implC1ERKS0_:
.LFB4044:
	.cfi_startproc
	pushq	%rbp
	.cfi_def_cfa_offset 16
	.cfi_offset 6, -16
	movq	%rsp, %rbp
	.cfi_def_cfa_register 6
	subq	$48, %rsp
	movq	%rdi, -40(%rbp)
	movq	%rsi, -48(%rbp)
	movq	-40(%rbp), %rax
	movq	%rax, -32(%rbp)
	movq	-48(%rbp), %rax
	movq	%rax, -24(%rbp)
	movq	-32(%rbp), %rax
	movq	%rax, -16(%rbp)
	movq	-24(%rbp), %rax
	movq	%rax, -8(%rbp)
	nop
	nop
	movq	-40(%rbp), %rax
	movq	%rax, %rdi
	call	_ZNSt12_Vector_baseIlSaIlEE17_Vector_impl_dataC2Ev
	nop
	leave
	.cfi_def_cfa 7, 8
	ret
	.cfi_endproc
.LFE4044:
	.size	_ZNSt12_Vector_baseIlSaIlEE12_Vector_implC1ERKS0_, .-_ZNSt12_Vector_baseIlSaIlEE12_Vector_implC1ERKS0_
	.section	.text._ZNKSt16initializer_listIlE5beginEv,"axG",@progbits,_ZNKSt16initializer_listIlE5beginEv,comdat
	.align 2
	.weak	_ZNKSt16initializer_listIlE5beginEv
	.type	_ZNKSt16initializer_listIlE5beginEv, @function
_ZNKSt16initializer_listIlE5beginEv:
.LFB4051:
	.cfi_startproc
	pushq	%rbp
	.cfi_def_cfa_offset 16
	.cfi_offset 6, -16
	movq	%rsp, %rbp
	.cfi_def_cfa_register 6
	movq	%rdi, -8(%rbp)
	movq	-8(%rbp), %rax
	movq	(%rax), %rax
	popq	%rbp
	.cfi_def_cfa 7, 8
	ret
	.cfi_endproc
.LFE4051:
	.size	_ZNKSt16initializer_listIlE5beginEv, .-_ZNKSt16initializer_listIlE5beginEv
	.section	.text._ZNKSt16initializer_listIlE3endEv,"axG",@progbits,_ZNKSt16initializer_listIlE3endEv,comdat
	.align 2
	.weak	_ZNKSt16initializer_listIlE3endEv
	.type	_ZNKSt16initializer_listIlE3endEv, @function
_ZNKSt16initializer_listIlE3endEv:
.LFB4052:
	.cfi_startproc
	pushq	%rbp
	.cfi_def_cfa_offset 16
	.cfi_offset 6, -16
	movq	%rsp, %rbp
	.cfi_def_cfa_register 6
	pushq	%rbx
	subq	$24, %rsp
	.cfi_offset 3, -24
	movq	%rdi, -24(%rbp)
	movq	-24(%rbp), %rax
	movq	%rax, %rdi
	call	_ZNKSt16initializer_listIlE5beginEv
	movq	%rax, %rbx
	movq	-24(%rbp), %rax
	movq	%rax, %rdi
	call	_ZNKSt16initializer_listIlE4sizeEv
	salq	$3, %rax
	addq	%rbx, %rax
	movq	-8(%rbp), %rbx
	leave
	.cfi_def_cfa 7, 8
	ret
	.cfi_endproc
.LFE4052:
	.size	_ZNKSt16initializer_listIlE3endEv, .-_ZNKSt16initializer_listIlE3endEv
	.section	.text._ZNKSt16initializer_listIlE4sizeEv,"axG",@progbits,_ZNKSt16initializer_listIlE4sizeEv,comdat
	.align 2
	.weak	_ZNKSt16initializer_listIlE4sizeEv
	.type	_ZNKSt16initializer_listIlE4sizeEv, @function
_ZNKSt16initializer_listIlE4sizeEv:
.LFB4053:
	.cfi_startproc
	pushq	%rbp
	.cfi_def_cfa_offset 16
	.cfi_offset 6, -16
	movq	%rsp, %rbp
	.cfi_def_cfa_register 6
	movq	%rdi, -8(%rbp)
	movq	-8(%rbp), %rax
	movq	8(%rax), %rax
	popq	%rbp
	.cfi_def_cfa 7, 8
	ret
	.cfi_endproc
.LFE4053:
	.size	_ZNKSt16initializer_listIlE4sizeEv, .-_ZNKSt16initializer_listIlE4sizeEv
	.section	.text._ZNSt6vectorIlSaIlEE19_M_range_initializeIPKlEEvT_S5_St20forward_iterator_tag,"axG",@progbits,_ZNSt6vectorIlSaIlEE19_M_range_initializeIPKlEEvT_S5_St20forward_iterator_tag,comdat
	.align 2
	.weak	_ZNSt6vectorIlSaIlEE19_M_range_initializeIPKlEEvT_S5_St20forward_iterator_tag
	.type	_ZNSt6vectorIlSaIlEE19_M_range_initializeIPKlEEvT_S5_St20forward_iterator_tag, @function
_ZNSt6vectorIlSaIlEE19_M_range_initializeIPKlEEvT_S5_St20forward_iterator_tag:
.LFB4054:
	.cfi_startproc
	pushq	%rbp
	.cfi_def_cfa_offset 16
	.cfi_offset 6, -16
	movq	%rsp, %rbp
	.cfi_def_cfa_register 6
	pushq	%rbx
	subq	$88, %rsp
	.cfi_offset 3, -24
	movq	%rdi, -72(%rbp)
	movq	%rsi, -80(%rbp)
	movq	%rdx, -88(%rbp)
	movq	%fs:40, %rax
	movq	%rax, -24(%rbp)
	xorl	%eax, %eax
	movq	-80(%rbp), %rax
	movq	%rax, -64(%rbp)
	movq	-88(%rbp), %rax
	movq	%rax, -48(%rbp)
	nop
	movq	-64(%rbp), %rax
	movq	%rax, -40(%rbp)
	movq	-48(%rbp), %rax
	movq	%rax, -32(%rbp)
	movq	-32(%rbp), %rax
	subq	-40(%rbp), %rax
	sarq	$3, %rax
	nop
	movq	%rax, -56(%rbp)
	movq	-72(%rbp), %rbx
	movq	-72(%rbp), %rax
	movq	%rax, %rdi
	call	_ZNSt12_Vector_baseIlSaIlEE19_M_get_Tp_allocatorEv
	movq	%rax, %rdx
	movq	-56(%rbp), %rax
	movq	%rdx, %rsi
	movq	%rax, %rdi
	call	_ZNSt6vectorIlSaIlEE17_S_check_init_lenEmRKS0_
	movq	%rax, %rsi
	movq	%rbx, %rdi
	call	_ZNSt12_Vector_baseIlSaIlEE11_M_allocateEm
	movq	-72(%rbp), %rdx
	movq	%rax, (%rdx)
	movq	-72(%rbp), %rax
	movq	(%rax), %rax
	movq	-56(%rbp), %rdx
	salq	$3, %rdx
	addq	%rax, %rdx
	movq	-72(%rbp), %rax
	movq	%rdx, 16(%rax)
	movq	-72(%rbp), %rax
	movq	%rax, %rdi
	call	_ZNSt12_Vector_baseIlSaIlEE19_M_get_Tp_allocatorEv
	movq	%rax, %rcx
	movq	-72(%rbp), %rax
	movq	(%rax), %rdx
	movq	-88(%rbp), %rsi
	movq	-80(%rbp), %rax
	movq	%rax, %rdi
	call	_ZSt22__uninitialized_copy_aIPKlPllET0_T_S4_S3_RSaIT1_E
	movq	-72(%rbp), %rdx
	movq	%rax, 8(%rdx)
	nop
	movq	-24(%rbp), %rax
	subq	%fs:40, %rax
	je	.L204
	call	__stack_chk_fail@PLT
.L204:
	movq	-8(%rbp), %rbx
	leave
	.cfi_def_cfa 7, 8
	ret
	.cfi_endproc
.LFE4054:
	.size	_ZNSt6vectorIlSaIlEE19_M_range_initializeIPKlEEvT_S5_St20forward_iterator_tag, .-_ZNSt6vectorIlSaIlEE19_M_range_initializeIPKlEEvT_S5_St20forward_iterator_tag
	.section	.text._ZNSt12_Vector_baseIlSaIlEE19_M_get_Tp_allocatorEv,"axG",@progbits,_ZNSt12_Vector_baseIlSaIlEE19_M_get_Tp_allocatorEv,comdat
	.align 2
	.weak	_ZNSt12_Vector_baseIlSaIlEE19_M_get_Tp_allocatorEv
	.type	_ZNSt12_Vector_baseIlSaIlEE19_M_get_Tp_allocatorEv, @function
_ZNSt12_Vector_baseIlSaIlEE19_M_get_Tp_allocatorEv:
.LFB4058:
	.cfi_startproc
	pushq	%rbp
	.cfi_def_cfa_offset 16
	.cfi_offset 6, -16
	movq	%rsp, %rbp
	.cfi_def_cfa_register 6
	movq	%rdi, -8(%rbp)
	movq	-8(%rbp), %rax
	popq	%rbp
	.cfi_def_cfa 7, 8
	ret
	.cfi_endproc
.LFE4058:
	.size	_ZNSt12_Vector_baseIlSaIlEE19_M_get_Tp_allocatorEv, .-_ZNSt12_Vector_baseIlSaIlEE19_M_get_Tp_allocatorEv
	.section	.rodata
	.align 8
.LC0:
	.string	"cannot create std::vector larger than max_size()"
	.section	.text._ZNSt6vectorIlSaIlEE17_S_check_init_lenEmRKS0_,"axG",@progbits,_ZNSt6vectorIlSaIlEE17_S_check_init_lenEmRKS0_,comdat
	.weak	_ZNSt6vectorIlSaIlEE17_S_check_init_lenEmRKS0_
	.type	_ZNSt6vectorIlSaIlEE17_S_check_init_lenEmRKS0_, @function
_ZNSt6vectorIlSaIlEE17_S_check_init_lenEmRKS0_:
.LFB4059:
	.cfi_startproc
	pushq	%rbp
	.cfi_def_cfa_offset 16
	.cfi_offset 6, -16
	movq	%rsp, %rbp
	.cfi_def_cfa_register 6
	subq	$64, %rsp
	movq	%rdi, -56(%rbp)
	movq	%rsi, -64(%rbp)
	movq	%fs:40, %rax
	movq	%rax, -8(%rbp)
	xorl	%eax, %eax
	movq	-64(%rbp), %rax
	movq	%rax, -32(%rbp)
	leaq	-33(%rbp), %rax
	movq	%rax, -24(%rbp)
	movq	-32(%rbp), %rax
	movq	%rax, -16(%rbp)
	nop
	nop
	leaq	-33(%rbp), %rax
	movq	%rax, %rdi
	call	_ZNSt6vectorIlSaIlEE11_S_max_sizeERKS0_
	cmpq	-56(%rbp), %rax
	setb	%al
	nop
	testb	%al, %al
	je	.L208
	movq	-8(%rbp), %rax
	subq	%fs:40, %rax
	je	.L209
	call	__stack_chk_fail@PLT
.L209:
	leaq	.LC0(%rip), %rax
	movq	%rax, %rdi
	call	_ZSt20__throw_length_errorPKc@PLT
.L208:
	movq	-56(%rbp), %rax
	movq	-8(%rbp), %rdx
	subq	%fs:40, %rdx
	je	.L211
	call	__stack_chk_fail@PLT
.L211:
	leave
	.cfi_def_cfa 7, 8
	ret
	.cfi_endproc
.LFE4059:
	.size	_ZNSt6vectorIlSaIlEE17_S_check_init_lenEmRKS0_, .-_ZNSt6vectorIlSaIlEE17_S_check_init_lenEmRKS0_
	.section	.text._ZNSt6vectorIlSaIlEE11_S_max_sizeERKS0_,"axG",@progbits,_ZNSt6vectorIlSaIlEE11_S_max_sizeERKS0_,comdat
	.weak	_ZNSt6vectorIlSaIlEE11_S_max_sizeERKS0_
	.type	_ZNSt6vectorIlSaIlEE11_S_max_sizeERKS0_, @function
_ZNSt6vectorIlSaIlEE11_S_max_sizeERKS0_:
.LFB4060:
	.cfi_startproc
	pushq	%rbp
	.cfi_def_cfa_offset 16
	.cfi_offset 6, -16
	movq	%rsp, %rbp
	.cfi_def_cfa_register 6
	subq	$48, %rsp
	movq	%rdi, -40(%rbp)
	movq	%fs:40, %rax
	movq	%rax, -8(%rbp)
	xorl	%eax, %eax
	movabsq	$1152921504606846975, %rax
	movq	%rax, -32(%rbp)
	movq	-40(%rbp), %rax
	movq	%rax, -16(%rbp)
	movabsq	$2305843009213693951, %rax
	movq	%rax, -24(%rbp)
	leaq	-24(%rbp), %rdx
	leaq	-32(%rbp), %rax
	movq	%rdx, %rsi
	movq	%rax, %rdi
	call	_ZSt3minImERKT_S2_S2_
	movq	(%rax), %rax
	movq	-8(%rbp), %rdx
	subq	%fs:40, %rdx
	je	.L215
	call	__stack_chk_fail@PLT
.L215:
	leave
	.cfi_def_cfa 7, 8
	ret
	.cfi_endproc
.LFE4060:
	.size	_ZNSt6vectorIlSaIlEE11_S_max_sizeERKS0_, .-_ZNSt6vectorIlSaIlEE11_S_max_sizeERKS0_
	.section	.text._ZNSt12_Vector_baseIlSaIlEE11_M_allocateEm,"axG",@progbits,_ZNSt12_Vector_baseIlSaIlEE11_M_allocateEm,comdat
	.align 2
	.weak	_ZNSt12_Vector_baseIlSaIlEE11_M_allocateEm
	.type	_ZNSt12_Vector_baseIlSaIlEE11_M_allocateEm, @function
_ZNSt12_Vector_baseIlSaIlEE11_M_allocateEm:
.LFB4065:
	.cfi_startproc
	pushq	%rbp
	.cfi_def_cfa_offset 16
	.cfi_offset 6, -16
	movq	%rsp, %rbp
	.cfi_def_cfa_register 6
	subq	$64, %rsp
	movq	%rdi, -56(%rbp)
	movq	%rsi, -64(%rbp)
	movq	%fs:40, %rax
	movq	%rax, -8(%rbp)
	xorl	%eax, %eax
	cmpq	$0, -64(%rbp)
	je	.L217
	movq	-56(%rbp), %rax
	movq	%rax, -32(%rbp)
	movq	-64(%rbp), %rax
	movq	%rax, -24(%rbp)
	movq	-32(%rbp), %rax
	movq	%rax, -16(%rbp)
	movq	-24(%rbp), %rax
	movq	%rax, -40(%rbp)
	call	_ZSt23__is_constant_evaluatedv
	testb	%al, %al
	je	.L218
	movq	-40(%rbp), %rax
	movl	$0, %ecx
	leaq	0(,%rax,8), %rdx
	shrq	$61, %rax
	testq	%rax, %rax
	je	.L219
	movl	$1, %ecx
.L219:
	movq	%rdx, %rax
	movq	%rax, -40(%rbp)
	movq	%rcx, %rax
	andl	$1, %eax
	testb	%al, %al
	je	.L221
	movq	-8(%rbp), %rax
	subq	%fs:40, %rax
	je	.L222
	call	__stack_chk_fail@PLT
.L222:
	call	_ZSt28__throw_bad_array_new_lengthv@PLT
.L221:
	movq	-40(%rbp), %rax
	movq	%rax, %rdi
	call	_Znwm@PLT
	jmp	.L223
.L218:
	movq	-40(%rbp), %rcx
	movq	-16(%rbp), %rax
	movl	$0, %edx
	movq	%rcx, %rsi
	movq	%rax, %rdi
	call	_ZNSt15__new_allocatorIlE8allocateEmPKv
	nop
.L223:
	nop
	jmp	.L225
.L217:
	movl	$0, %eax
.L225:
	movq	-8(%rbp), %rdx
	subq	%fs:40, %rdx
	je	.L227
	call	__stack_chk_fail@PLT
.L227:
	leave
	.cfi_def_cfa 7, 8
	ret
	.cfi_endproc
.LFE4065:
	.size	_ZNSt12_Vector_baseIlSaIlEE11_M_allocateEm, .-_ZNSt12_Vector_baseIlSaIlEE11_M_allocateEm
	.section	.text._ZN2fp5curryIPFSt6vectorIlSaIlEEPFiiES3_EJEEEDaT_DpT0_,"axG",@progbits,_ZN2fp5curryIPFSt6vectorIlSaIlEEPFiiES3_EJEEEDaT_DpT0_,comdat
	.weak	_ZN2fp5curryIPFSt6vectorIlSaIlEEPFiiES3_EJEEEDaT_DpT0_
	.type	_ZN2fp5curryIPFSt6vectorIlSaIlEEPFiiES3_EJEEEDaT_DpT0_, @function
_ZN2fp5curryIPFSt6vectorIlSaIlEEPFiiES3_EJEEEDaT_DpT0_:
.LFB4068:
	.cfi_startproc
	pushq	%rbp
	.cfi_def_cfa_offset 16
	.cfi_offset 6, -16
	movq	%rsp, %rbp
	.cfi_def_cfa_register 6
	movq	%rdi, -8(%rbp)
	movq	-8(%rbp), %rax
	popq	%rbp
	.cfi_def_cfa 7, 8
	ret
	.cfi_endproc
.LFE4068:
	.size	_ZN2fp5curryIPFSt6vectorIlSaIlEEPFiiES3_EJEEEDaT_DpT0_, .-_ZN2fp5curryIPFSt6vectorIlSaIlEEPFiiES3_EJEEEDaT_DpT0_
	.section	.text._ZZN2fp5curryIPFSt6vectorIlSaIlEEPFiiES3_EJEEEDaT_DpT0_ENKUlDpT_E_clIJS5_EEEDaSC_,"axG",@progbits,_ZZN2fp5curryIPFSt6vectorIlSaIlEEPFiiES3_EJEEEDaT_DpT0_ENKUlDpT_E_clIJS5_EEEDaSC_,comdat
	.align 2
	.weak	_ZZN2fp5curryIPFSt6vectorIlSaIlEEPFiiES3_EJEEEDaT_DpT0_ENKUlDpT_E_clIJS5_EEEDaSC_
	.type	_ZZN2fp5curryIPFSt6vectorIlSaIlEEPFiiES3_EJEEEDaT_DpT0_ENKUlDpT_E_clIJS5_EEEDaSC_, @function
_ZZN2fp5curryIPFSt6vectorIlSaIlEEPFiiES3_EJEEEDaT_DpT0_ENKUlDpT_E_clIJS5_EEEDaSC_:
.LFB4070:
	.cfi_startproc
	pushq	%rbp
	.cfi_def_cfa_offset 16
	.cfi_offset 6, -16
	movq	%rsp, %rbp
	.cfi_def_cfa_register 6
	subq	$16, %rsp
	movq	%rdi, -8(%rbp)
	movq	%rsi, -16(%rbp)
	movq	-8(%rbp), %rax
	movq	(%rax), %rax
	movq	-16(%rbp), %rdx
	movq	%rdx, %rsi
	movq	%rax, %rdi
	call	_ZN2fp5curryIPFSt6vectorIlSaIlEEPFiiES3_EJS5_EEEDaT_DpT0_
	leave
	.cfi_def_cfa 7, 8
	ret
	.cfi_endproc
.LFE4070:
	.size	_ZZN2fp5curryIPFSt6vectorIlSaIlEEPFiiES3_EJEEEDaT_DpT0_ENKUlDpT_E_clIJS5_EEEDaSC_, .-_ZZN2fp5curryIPFSt6vectorIlSaIlEEPFiiES3_EJEEEDaT_DpT0_ENKUlDpT_E_clIJS5_EEEDaSC_
	.section	.text._ZN2fp5curryIPFSt6vectorIlSaIlEEPFiiES3_EJS5_EEEDaT_DpT0_,"axG",@progbits,_ZN2fp5curryIPFSt6vectorIlSaIlEEPFiiES3_EJS5_EEEDaT_DpT0_,comdat
	.weak	_ZN2fp5curryIPFSt6vectorIlSaIlEEPFiiES3_EJS5_EEEDaT_DpT0_
	.type	_ZN2fp5curryIPFSt6vectorIlSaIlEEPFiiES3_EJS5_EEEDaT_DpT0_, @function
_ZN2fp5curryIPFSt6vectorIlSaIlEEPFiiES3_EJS5_EEEDaT_DpT0_:
.LFB4071:
	.cfi_startproc
	pushq	%rbp
	.cfi_def_cfa_offset 16
	.cfi_offset 6, -16
	movq	%rsp, %rbp
	.cfi_def_cfa_register 6
	movq	%rdi, -8(%rbp)
	movq	%rsi, -16(%rbp)
	movq	-8(%rbp), %rax
	movq	-16(%rbp), %rdx
	popq	%rbp
	.cfi_def_cfa 7, 8
	ret
	.cfi_endproc
.LFE4071:
	.size	_ZN2fp5curryIPFSt6vectorIlSaIlEEPFiiES3_EJS5_EEEDaT_DpT0_, .-_ZN2fp5curryIPFSt6vectorIlSaIlEEPFiiES3_EJS5_EEEDaT_DpT0_
	.section	.text._ZN2fp5curryIPFSt6vectorIlSaIlEEPFbiES3_EJEEEDaT_DpT0_,"axG",@progbits,_ZN2fp5curryIPFSt6vectorIlSaIlEEPFbiES3_EJEEEDaT_DpT0_,comdat
	.weak	_ZN2fp5curryIPFSt6vectorIlSaIlEEPFbiES3_EJEEEDaT_DpT0_
	.type	_ZN2fp5curryIPFSt6vectorIlSaIlEEPFbiES3_EJEEEDaT_DpT0_, @function
_ZN2fp5curryIPFSt6vectorIlSaIlEEPFbiES3_EJEEEDaT_DpT0_:
.LFB4073:
	.cfi_startproc
	pushq	%rbp
	.cfi_def_cfa_offset 16
	.cfi_offset 6, -16
	movq	%rsp, %rbp
	.cfi_def_cfa_register 6
	movq	%rdi, -8(%rbp)
	movq	-8(%rbp), %rax
	popq	%rbp
	.cfi_def_cfa 7, 8
	ret
	.cfi_endproc
.LFE4073:
	.size	_ZN2fp5curryIPFSt6vectorIlSaIlEEPFbiES3_EJEEEDaT_DpT0_, .-_ZN2fp5curryIPFSt6vectorIlSaIlEEPFbiES3_EJEEEDaT_DpT0_
	.section	.text._ZZN2fp5curryIPFSt6vectorIlSaIlEEPFbiES3_EJEEEDaT_DpT0_ENKUlDpT_E_clIJS5_EEEDaSC_,"axG",@progbits,_ZZN2fp5curryIPFSt6vectorIlSaIlEEPFbiES3_EJEEEDaT_DpT0_ENKUlDpT_E_clIJS5_EEEDaSC_,comdat
	.align 2
	.weak	_ZZN2fp5curryIPFSt6vectorIlSaIlEEPFbiES3_EJEEEDaT_DpT0_ENKUlDpT_E_clIJS5_EEEDaSC_
	.type	_ZZN2fp5curryIPFSt6vectorIlSaIlEEPFbiES3_EJEEEDaT_DpT0_ENKUlDpT_E_clIJS5_EEEDaSC_, @function
_ZZN2fp5curryIPFSt6vectorIlSaIlEEPFbiES3_EJEEEDaT_DpT0_ENKUlDpT_E_clIJS5_EEEDaSC_:
.LFB4075:
	.cfi_startproc
	pushq	%rbp
	.cfi_def_cfa_offset 16
	.cfi_offset 6, -16
	movq	%rsp, %rbp
	.cfi_def_cfa_register 6
	subq	$16, %rsp
	movq	%rdi, -8(%rbp)
	movq	%rsi, -16(%rbp)
	movq	-8(%rbp), %rax
	movq	(%rax), %rax
	movq	-16(%rbp), %rdx
	movq	%rdx, %rsi
	movq	%rax, %rdi
	call	_ZN2fp5curryIPFSt6vectorIlSaIlEEPFbiES3_EJS5_EEEDaT_DpT0_
	leave
	.cfi_def_cfa 7, 8
	ret
	.cfi_endproc
.LFE4075:
	.size	_ZZN2fp5curryIPFSt6vectorIlSaIlEEPFbiES3_EJEEEDaT_DpT0_ENKUlDpT_E_clIJS5_EEEDaSC_, .-_ZZN2fp5curryIPFSt6vectorIlSaIlEEPFbiES3_EJEEEDaT_DpT0_ENKUlDpT_E_clIJS5_EEEDaSC_
	.section	.text._ZN2fp5curryIPFSt6vectorIlSaIlEEPFbiES3_EJS5_EEEDaT_DpT0_,"axG",@progbits,_ZN2fp5curryIPFSt6vectorIlSaIlEEPFbiES3_EJS5_EEEDaT_DpT0_,comdat
	.weak	_ZN2fp5curryIPFSt6vectorIlSaIlEEPFbiES3_EJS5_EEEDaT_DpT0_
	.type	_ZN2fp5curryIPFSt6vectorIlSaIlEEPFbiES3_EJS5_EEEDaT_DpT0_, @function
_ZN2fp5curryIPFSt6vectorIlSaIlEEPFbiES3_EJS5_EEEDaT_DpT0_:
.LFB4076:
	.cfi_startproc
	pushq	%rbp
	.cfi_def_cfa_offset 16
	.cfi_offset 6, -16
	movq	%rsp, %rbp
	.cfi_def_cfa_register 6
	movq	%rdi, -8(%rbp)
	movq	%rsi, -16(%rbp)
	movq	-8(%rbp), %rax
	movq	-16(%rbp), %rdx
	popq	%rbp
	.cfi_def_cfa 7, 8
	ret
	.cfi_endproc
.LFE4076:
	.size	_ZN2fp5curryIPFSt6vectorIlSaIlEEPFbiES3_EJS5_EEEDaT_DpT0_, .-_ZN2fp5curryIPFSt6vectorIlSaIlEEPFbiES3_EJS5_EEEDaT_DpT0_
	.section	.text._ZZN2fp5curryIPFSt6vectorIlSaIlEEPFiiES3_EJS5_EEEDaT_DpT0_ENKUlDpT_E_clIJS3_EEEDaSC_,"axG",@progbits,_ZZN2fp5curryIPFSt6vectorIlSaIlEEPFiiES3_EJS5_EEEDaT_DpT0_ENKUlDpT_E_clIJS3_EEEDaSC_,comdat
	.align 2
	.weak	_ZZN2fp5curryIPFSt6vectorIlSaIlEEPFiiES3_EJS5_EEEDaT_DpT0_ENKUlDpT_E_clIJS3_EEEDaSC_
	.type	_ZZN2fp5curryIPFSt6vectorIlSaIlEEPFiiES3_EJS5_EEEDaT_DpT0_ENKUlDpT_E_clIJS3_EEEDaSC_, @function
_ZZN2fp5curryIPFSt6vectorIlSaIlEEPFiiES3_EJS5_EEEDaT_DpT0_ENKUlDpT_E_clIJS3_EEEDaSC_:
.LFB4078:
	.cfi_startproc
	.cfi_personality 0x9b,DW.ref.__gxx_personality_v0
	.cfi_lsda 0x1b,.LLSDA4078
	pushq	%rbp
	.cfi_def_cfa_offset 16
	.cfi_offset 6, -16
	movq	%rsp, %rbp
	.cfi_def_cfa_register 6
	pushq	%rbx
	subq	$72, %rsp
	.cfi_offset 3, -24
	movq	%rdi, -56(%rbp)
	movq	%rsi, -64(%rbp)
	movq	%rdx, -72(%rbp)
	movq	%fs:40, %rax
	movq	%rax, -24(%rbp)
	xorl	%eax, %eax
	movq	-72(%rbp), %rdx
	leaq	-48(%rbp), %rax
	movq	%rdx, %rsi
	movq	%rax, %rdi
.LEHB42:
	call	_ZNSt6vectorIlSaIlEEC1ERKS1_
.LEHE42:
	movq	-64(%rbp), %rax
	movq	8(%rax), %rdx
	movq	-64(%rbp), %rax
	movq	(%rax), %rsi
	movq	-56(%rbp), %rax
	leaq	-48(%rbp), %rcx
	movq	%rax, %rdi
.LEHB43:
	call	_ZN2fp5curryIPFSt6vectorIlSaIlEEPFiiES3_EJS5_S3_EEEDaT_DpT0_
.LEHE43:
	leaq	-48(%rbp), %rax
	movq	%rax, %rdi
	call	_ZNSt6vectorIlSaIlEED1Ev
	movq	-24(%rbp), %rax
	subq	%fs:40, %rax
	je	.L244
	jmp	.L246
.L245:
	movq	%rax, %rbx
	leaq	-48(%rbp), %rax
	movq	%rax, %rdi
	call	_ZNSt6vectorIlSaIlEED1Ev
	movq	%rbx, %rax
	movq	-24(%rbp), %rdx
	subq	%fs:40, %rdx
	je	.L243
	call	__stack_chk_fail@PLT
.L243:
	movq	%rax, %rdi
.LEHB44:
	call	_Unwind_Resume@PLT
.LEHE44:
.L246:
	call	__stack_chk_fail@PLT
.L244:
	movq	-56(%rbp), %rax
	movq	-8(%rbp), %rbx
	leave
	.cfi_def_cfa 7, 8
	ret
	.cfi_endproc
.LFE4078:
	.section	.gcc_except_table
.LLSDA4078:
	.byte	0xff
	.byte	0xff
	.byte	0x1
	.uleb128 .LLSDACSE4078-.LLSDACSB4078
.LLSDACSB4078:
	.uleb128 .LEHB42-.LFB4078
	.uleb128 .LEHE42-.LEHB42
	.uleb128 0
	.uleb128 0
	.uleb128 .LEHB43-.LFB4078
	.uleb128 .LEHE43-.LEHB43
	.uleb128 .L245-.LFB4078
	.uleb128 0
	.uleb128 .LEHB44-.LFB4078
	.uleb128 .LEHE44-.LEHB44
	.uleb128 0
	.uleb128 0
.LLSDACSE4078:
	.section	.text._ZZN2fp5curryIPFSt6vectorIlSaIlEEPFiiES3_EJS5_EEEDaT_DpT0_ENKUlDpT_E_clIJS3_EEEDaSC_,"axG",@progbits,_ZZN2fp5curryIPFSt6vectorIlSaIlEEPFiiES3_EJS5_EEEDaT_DpT0_ENKUlDpT_E_clIJS3_EEEDaSC_,comdat
	.size	_ZZN2fp5curryIPFSt6vectorIlSaIlEEPFiiES3_EJS5_EEEDaT_DpT0_ENKUlDpT_E_clIJS3_EEEDaSC_, .-_ZZN2fp5curryIPFSt6vectorIlSaIlEEPFiiES3_EJS5_EEEDaT_DpT0_ENKUlDpT_E_clIJS3_EEEDaSC_
	.section	.text._ZN2fp5curryIPFSt6vectorIlSaIlEEPFiiES3_EJS5_S3_EEEDaT_DpT0_,"axG",@progbits,_ZN2fp5curryIPFSt6vectorIlSaIlEEPFiiES3_EJS5_S3_EEEDaT_DpT0_,comdat
	.weak	_ZN2fp5curryIPFSt6vectorIlSaIlEEPFiiES3_EJS5_S3_EEEDaT_DpT0_
	.type	_ZN2fp5curryIPFSt6vectorIlSaIlEEPFiiES3_EJS5_S3_EEEDaT_DpT0_, @function
_ZN2fp5curryIPFSt6vectorIlSaIlEEPFiiES3_EJS5_S3_EEEDaT_DpT0_:
.LFB4079:
	.cfi_startproc
	.cfi_personality 0x9b,DW.ref.__gxx_personality_v0
	.cfi_lsda 0x1b,.LLSDA4079
	pushq	%rbp
	.cfi_def_cfa_offset 16
	.cfi_offset 6, -16
	movq	%rsp, %rbp
	.cfi_def_cfa_register 6
	pushq	%rbx
	subq	$72, %rsp
	.cfi_offset 3, -24
	movq	%rdi, -56(%rbp)
	movq	%rsi, -64(%rbp)
	movq	%rdx, -72(%rbp)
	movq	%rcx, -80(%rbp)
	movq	%fs:40, %rax
	movq	%rax, -24(%rbp)
	xorl	%eax, %eax
	movq	-64(%rbp), %rbx
	movq	-80(%rbp), %rdx
	leaq	-48(%rbp), %rax
	movq	%rdx, %rsi
	movq	%rax, %rdi
.LEHB45:
	call	_ZNSt6vectorIlSaIlEEC1ERKS1_
.LEHE45:
	movq	-56(%rbp), %rax
	leaq	-48(%rbp), %rdx
	movq	-72(%rbp), %rcx
	movq	%rcx, %rsi
	movq	%rax, %rdi
.LEHB46:
	call	*%rbx
.LEHE46:
	leaq	-48(%rbp), %rax
	movq	%rax, %rdi
	call	_ZNSt6vectorIlSaIlEED1Ev
	movq	-24(%rbp), %rax
	subq	%fs:40, %rax
	je	.L251
	jmp	.L253
.L252:
	movq	%rax, %rbx
	leaq	-48(%rbp), %rax
	movq	%rax, %rdi
	call	_ZNSt6vectorIlSaIlEED1Ev
	movq	%rbx, %rax
	movq	-24(%rbp), %rdx
	subq	%fs:40, %rdx
	je	.L250
	call	__stack_chk_fail@PLT
.L250:
	movq	%rax, %rdi
.LEHB47:
	call	_Unwind_Resume@PLT
.LEHE47:
.L253:
	call	__stack_chk_fail@PLT
.L251:
	movq	-56(%rbp), %rax
	movq	-8(%rbp), %rbx
	leave
	.cfi_def_cfa 7, 8
	ret
	.cfi_endproc
.LFE4079:
	.section	.gcc_except_table
.LLSDA4079:
	.byte	0xff
	.byte	0xff
	.byte	0x1
	.uleb128 .LLSDACSE4079-.LLSDACSB4079
.LLSDACSB4079:
	.uleb128 .LEHB45-.LFB4079
	.uleb128 .LEHE45-.LEHB45
	.uleb128 0
	.uleb128 0
	.uleb128 .LEHB46-.LFB4079
	.uleb128 .LEHE46-.LEHB46
	.uleb128 .L252-.LFB4079
	.uleb128 0
	.uleb128 .LEHB47-.LFB4079
	.uleb128 .LEHE47-.LEHB47
	.uleb128 0
	.uleb128 0
.LLSDACSE4079:
	.section	.text._ZN2fp5curryIPFSt6vectorIlSaIlEEPFiiES3_EJS5_S3_EEEDaT_DpT0_,"axG",@progbits,_ZN2fp5curryIPFSt6vectorIlSaIlEEPFiiES3_EJS5_S3_EEEDaT_DpT0_,comdat
	.size	_ZN2fp5curryIPFSt6vectorIlSaIlEEPFiiES3_EJS5_S3_EEEDaT_DpT0_, .-_ZN2fp5curryIPFSt6vectorIlSaIlEEPFiiES3_EJS5_S3_EEEDaT_DpT0_
	.section	.text._ZZN2fp5curryIPFSt6vectorIlSaIlEEPFbiES3_EJS5_EEEDaT_DpT0_ENKUlDpT_E_clIJS3_EEEDaSC_,"axG",@progbits,_ZZN2fp5curryIPFSt6vectorIlSaIlEEPFbiES3_EJS5_EEEDaT_DpT0_ENKUlDpT_E_clIJS3_EEEDaSC_,comdat
	.align 2
	.weak	_ZZN2fp5curryIPFSt6vectorIlSaIlEEPFbiES3_EJS5_EEEDaT_DpT0_ENKUlDpT_E_clIJS3_EEEDaSC_
	.type	_ZZN2fp5curryIPFSt6vectorIlSaIlEEPFbiES3_EJS5_EEEDaT_DpT0_ENKUlDpT_E_clIJS3_EEEDaSC_, @function
_ZZN2fp5curryIPFSt6vectorIlSaIlEEPFbiES3_EJS5_EEEDaT_DpT0_ENKUlDpT_E_clIJS3_EEEDaSC_:
.LFB4080:
	.cfi_startproc
	.cfi_personality 0x9b,DW.ref.__gxx_personality_v0
	.cfi_lsda 0x1b,.LLSDA4080
	pushq	%rbp
	.cfi_def_cfa_offset 16
	.cfi_offset 6, -16
	movq	%rsp, %rbp
	.cfi_def_cfa_register 6
	pushq	%rbx
	subq	$72, %rsp
	.cfi_offset 3, -24
	movq	%rdi, -56(%rbp)
	movq	%rsi, -64(%rbp)
	movq	%rdx, -72(%rbp)
	movq	%fs:40, %rax
	movq	%rax, -24(%rbp)
	xorl	%eax, %eax
	movq	-72(%rbp), %rdx
	leaq	-48(%rbp), %rax
	movq	%rdx, %rsi
	movq	%rax, %rdi
.LEHB48:
	call	_ZNSt6vectorIlSaIlEEC1ERKS1_
.LEHE48:
	movq	-64(%rbp), %rax
	movq	8(%rax), %rdx
	movq	-64(%rbp), %rax
	movq	(%rax), %rsi
	movq	-56(%rbp), %rax
	leaq	-48(%rbp), %rcx
	movq	%rax, %rdi
.LEHB49:
	call	_ZN2fp5curryIPFSt6vectorIlSaIlEEPFbiES3_EJS5_S3_EEEDaT_DpT0_
.LEHE49:
	leaq	-48(%rbp), %rax
	movq	%rax, %rdi
	call	_ZNSt6vectorIlSaIlEED1Ev
	movq	-24(%rbp), %rax
	subq	%fs:40, %rax
	je	.L258
	jmp	.L260
.L259:
	movq	%rax, %rbx
	leaq	-48(%rbp), %rax
	movq	%rax, %rdi
	call	_ZNSt6vectorIlSaIlEED1Ev
	movq	%rbx, %rax
	movq	-24(%rbp), %rdx
	subq	%fs:40, %rdx
	je	.L257
	call	__stack_chk_fail@PLT
.L257:
	movq	%rax, %rdi
.LEHB50:
	call	_Unwind_Resume@PLT
.LEHE50:
.L260:
	call	__stack_chk_fail@PLT
.L258:
	movq	-56(%rbp), %rax
	movq	-8(%rbp), %rbx
	leave
	.cfi_def_cfa 7, 8
	ret
	.cfi_endproc
.LFE4080:
	.section	.gcc_except_table
.LLSDA4080:
	.byte	0xff
	.byte	0xff
	.byte	0x1
	.uleb128 .LLSDACSE4080-.LLSDACSB4080
.LLSDACSB4080:
	.uleb128 .LEHB48-.LFB4080
	.uleb128 .LEHE48-.LEHB48
	.uleb128 0
	.uleb128 0
	.uleb128 .LEHB49-.LFB4080
	.uleb128 .LEHE49-.LEHB49
	.uleb128 .L259-.LFB4080
	.uleb128 0
	.uleb128 .LEHB50-.LFB4080
	.uleb128 .LEHE50-.LEHB50
	.uleb128 0
	.uleb128 0
.LLSDACSE4080:
	.section	.text._ZZN2fp5curryIPFSt6vectorIlSaIlEEPFbiES3_EJS5_EEEDaT_DpT0_ENKUlDpT_E_clIJS3_EEEDaSC_,"axG",@progbits,_ZZN2fp5curryIPFSt6vectorIlSaIlEEPFbiES3_EJS5_EEEDaT_DpT0_ENKUlDpT_E_clIJS3_EEEDaSC_,comdat
	.size	_ZZN2fp5curryIPFSt6vectorIlSaIlEEPFbiES3_EJS5_EEEDaT_DpT0_ENKUlDpT_E_clIJS3_EEEDaSC_, .-_ZZN2fp5curryIPFSt6vectorIlSaIlEEPFbiES3_EJS5_EEEDaT_DpT0_ENKUlDpT_E_clIJS3_EEEDaSC_
	.section	.text._ZN2fp5curryIPFSt6vectorIlSaIlEEPFbiES3_EJS5_S3_EEEDaT_DpT0_,"axG",@progbits,_ZN2fp5curryIPFSt6vectorIlSaIlEEPFbiES3_EJS5_S3_EEEDaT_DpT0_,comdat
	.weak	_ZN2fp5curryIPFSt6vectorIlSaIlEEPFbiES3_EJS5_S3_EEEDaT_DpT0_
	.type	_ZN2fp5curryIPFSt6vectorIlSaIlEEPFbiES3_EJS5_S3_EEEDaT_DpT0_, @function
_ZN2fp5curryIPFSt6vectorIlSaIlEEPFbiES3_EJS5_S3_EEEDaT_DpT0_:
.LFB4081:
	.cfi_startproc
	.cfi_personality 0x9b,DW.ref.__gxx_personality_v0
	.cfi_lsda 0x1b,.LLSDA4081
	pushq	%rbp
	.cfi_def_cfa_offset 16
	.cfi_offset 6, -16
	movq	%rsp, %rbp
	.cfi_def_cfa_register 6
	pushq	%rbx
	subq	$72, %rsp
	.cfi_offset 3, -24
	movq	%rdi, -56(%rbp)
	movq	%rsi, -64(%rbp)
	movq	%rdx, -72(%rbp)
	movq	%rcx, -80(%rbp)
	movq	%fs:40, %rax
	movq	%rax, -24(%rbp)
	xorl	%eax, %eax
	movq	-64(%rbp), %rbx
	movq	-80(%rbp), %rdx
	leaq	-48(%rbp), %rax
	movq	%rdx, %rsi
	movq	%rax, %rdi
.LEHB51:
	call	_ZNSt6vectorIlSaIlEEC1ERKS1_
.LEHE51:
	movq	-56(%rbp), %rax
	leaq	-48(%rbp), %rdx
	movq	-72(%rbp), %rcx
	movq	%rcx, %rsi
	movq	%rax, %rdi
.LEHB52:
	call	*%rbx
.LEHE52:
	leaq	-48(%rbp), %rax
	movq	%rax, %rdi
	call	_ZNSt6vectorIlSaIlEED1Ev
	movq	-24(%rbp), %rax
	subq	%fs:40, %rax
	je	.L265
	jmp	.L267
.L266:
	movq	%rax, %rbx
	leaq	-48(%rbp), %rax
	movq	%rax, %rdi
	call	_ZNSt6vectorIlSaIlEED1Ev
	movq	%rbx, %rax
	movq	-24(%rbp), %rdx
	subq	%fs:40, %rdx
	je	.L264
	call	__stack_chk_fail@PLT
.L264:
	movq	%rax, %rdi
.LEHB53:
	call	_Unwind_Resume@PLT
.LEHE53:
.L267:
	call	__stack_chk_fail@PLT
.L265:
	movq	-56(%rbp), %rax
	movq	-8(%rbp), %rbx
	leave
	.cfi_def_cfa 7, 8
	ret
	.cfi_endproc
.LFE4081:
	.section	.gcc_except_table
.LLSDA4081:
	.byte	0xff
	.byte	0xff
	.byte	0x1
	.uleb128 .LLSDACSE4081-.LLSDACSB4081
.LLSDACSB4081:
	.uleb128 .LEHB51-.LFB4081
	.uleb128 .LEHE51-.LEHB51
	.uleb128 0
	.uleb128 0
	.uleb128 .LEHB52-.LFB4081
	.uleb128 .LEHE52-.LEHB52
	.uleb128 .L266-.LFB4081
	.uleb128 0
	.uleb128 .LEHB53-.LFB4081
	.uleb128 .LEHE53-.LEHB53
	.uleb128 0
	.uleb128 0
.LLSDACSE4081:
	.section	.text._ZN2fp5curryIPFSt6vectorIlSaIlEEPFbiES3_EJS5_S3_EEEDaT_DpT0_,"axG",@progbits,_ZN2fp5curryIPFSt6vectorIlSaIlEEPFbiES3_EJS5_S3_EEEDaT_DpT0_,comdat
	.size	_ZN2fp5curryIPFSt6vectorIlSaIlEEPFbiES3_EJS5_S3_EEEDaT_DpT0_, .-_ZN2fp5curryIPFSt6vectorIlSaIlEEPFbiES3_EJS5_S3_EEEDaT_DpT0_
	.section	.text._ZNSt8functionIFSt6vectorIlSaIlEES2_EED2Ev,"axG",@progbits,_ZNSt8functionIFSt6vectorIlSaIlEES2_EED5Ev,comdat
	.align 2
	.weak	_ZNSt8functionIFSt6vectorIlSaIlEES2_EED2Ev
	.type	_ZNSt8functionIFSt6vectorIlSaIlEES2_EED2Ev, @function
_ZNSt8functionIFSt6vectorIlSaIlEES2_EED2Ev:
.LFB4085:
	.cfi_startproc
	pushq	%rbp
	.cfi_def_cfa_offset 16
	.cfi_offset 6, -16
	movq	%rsp, %rbp
	.cfi_def_cfa_register 6
	subq	$16, %rsp
	movq	%rdi, -8(%rbp)
	movq	-8(%rbp), %rax
	movq	%rax, %rdi
	call	_ZNSt14_Function_baseD2Ev
	nop
	leave
	.cfi_def_cfa 7, 8
	ret
	.cfi_endproc
.LFE4085:
	.size	_ZNSt8functionIFSt6vectorIlSaIlEES2_EED2Ev, .-_ZNSt8functionIFSt6vectorIlSaIlEES2_EED2Ev
	.weak	_ZNSt8functionIFSt6vectorIlSaIlEES2_EED1Ev
	.set	_ZNSt8functionIFSt6vectorIlSaIlEES2_EED1Ev,_ZNSt8functionIFSt6vectorIlSaIlEES2_EED2Ev
	.section	.text._ZN9__gnu_cxxeqIPlSt6vectorIlSaIlEEEEbRKNS_17__normal_iteratorIT_T0_EESA_,"axG",@progbits,_ZN9__gnu_cxxeqIPlSt6vectorIlSaIlEEEEbRKNS_17__normal_iteratorIT_T0_EESA_,comdat
	.weak	_ZN9__gnu_cxxeqIPlSt6vectorIlSaIlEEEEbRKNS_17__normal_iteratorIT_T0_EESA_
	.type	_ZN9__gnu_cxxeqIPlSt6vectorIlSaIlEEEEbRKNS_17__normal_iteratorIT_T0_EESA_, @function
_ZN9__gnu_cxxeqIPlSt6vectorIlSaIlEEEEbRKNS_17__normal_iteratorIT_T0_EESA_:
.LFB4089:
	.cfi_startproc
	pushq	%rbp
	.cfi_def_cfa_offset 16
	.cfi_offset 6, -16
	movq	%rsp, %rbp
	.cfi_def_cfa_register 6
	pushq	%rbx
	subq	$24, %rsp
	.cfi_offset 3, -24
	movq	%rdi, -24(%rbp)
	movq	%rsi, -32(%rbp)
	movq	-24(%rbp), %rax
	movq	%rax, %rdi
	call	_ZNK9__gnu_cxx17__normal_iteratorIPlSt6vectorIlSaIlEEE4baseEv
	movq	(%rax), %rbx
	movq	-32(%rbp), %rax
	movq	%rax, %rdi
	call	_ZNK9__gnu_cxx17__normal_iteratorIPlSt6vectorIlSaIlEEE4baseEv
	movq	(%rax), %rax
	cmpq	%rax, %rbx
	sete	%al
	movq	-8(%rbp), %rbx
	leave
	.cfi_def_cfa 7, 8
	ret
	.cfi_endproc
.LFE4089:
	.size	_ZN9__gnu_cxxeqIPlSt6vectorIlSaIlEEEEbRKNS_17__normal_iteratorIT_T0_EESA_, .-_ZN9__gnu_cxxeqIPlSt6vectorIlSaIlEEEEbRKNS_17__normal_iteratorIT_T0_EESA_
	.section	.text._ZNK9__gnu_cxx17__normal_iteratorIPlSt6vectorIlSaIlEEE4baseEv,"axG",@progbits,_ZNK9__gnu_cxx17__normal_iteratorIPlSt6vectorIlSaIlEEE4baseEv,comdat
	.align 2
	.weak	_ZNK9__gnu_cxx17__normal_iteratorIPlSt6vectorIlSaIlEEE4baseEv
	.type	_ZNK9__gnu_cxx17__normal_iteratorIPlSt6vectorIlSaIlEEE4baseEv, @function
_ZNK9__gnu_cxx17__normal_iteratorIPlSt6vectorIlSaIlEEE4baseEv:
.LFB4090:
	.cfi_startproc
	pushq	%rbp
	.cfi_def_cfa_offset 16
	.cfi_offset 6, -16
	movq	%rsp, %rbp
	.cfi_def_cfa_register 6
	movq	%rdi, -8(%rbp)
	movq	-8(%rbp), %rax
	popq	%rbp
	.cfi_def_cfa 7, 8
	ret
	.cfi_endproc
.LFE4090:
	.size	_ZNK9__gnu_cxx17__normal_iteratorIPlSt6vectorIlSaIlEEE4baseEv, .-_ZNK9__gnu_cxx17__normal_iteratorIPlSt6vectorIlSaIlEEE4baseEv
	.section	.text._ZNK9__gnu_cxx17__normal_iteratorIPlSt6vectorIlSaIlEEEdeEv,"axG",@progbits,_ZNK9__gnu_cxx17__normal_iteratorIPlSt6vectorIlSaIlEEEdeEv,comdat
	.align 2
	.weak	_ZNK9__gnu_cxx17__normal_iteratorIPlSt6vectorIlSaIlEEEdeEv
	.type	_ZNK9__gnu_cxx17__normal_iteratorIPlSt6vectorIlSaIlEEEdeEv, @function
_ZNK9__gnu_cxx17__normal_iteratorIPlSt6vectorIlSaIlEEEdeEv:
.LFB4091:
	.cfi_startproc
	pushq	%rbp
	.cfi_def_cfa_offset 16
	.cfi_offset 6, -16
	movq	%rsp, %rbp
	.cfi_def_cfa_register 6
	movq	%rdi, -8(%rbp)
	movq	-8(%rbp), %rax
	movq	(%rax), %rax
	popq	%rbp
	.cfi_def_cfa 7, 8
	ret
	.cfi_endproc
.LFE4091:
	.size	_ZNK9__gnu_cxx17__normal_iteratorIPlSt6vectorIlSaIlEEEdeEv, .-_ZNK9__gnu_cxx17__normal_iteratorIPlSt6vectorIlSaIlEEEdeEv
	.section	.rodata
.LC1:
	.string	"i = "
	.text
	.globl	main
	.type	main, @function
main:
.LFB4035:
	.cfi_startproc
	.cfi_personality 0x9b,DW.ref.__gxx_personality_v0
	.cfi_lsda 0x1b,.LLSDA4035
	pushq	%rbp
	.cfi_def_cfa_offset 16
	.cfi_offset 6, -16
	movq	%rsp, %rbp
	.cfi_def_cfa_register 6
	pushq	%r15
	pushq	%r14
	pushq	%r13
	pushq	%r12
	pushq	%rbx
	subq	$344, %rsp
	.cfi_offset 15, -24
	.cfi_offset 14, -32
	.cfi_offset 13, -40
	.cfi_offset 12, -48
	.cfi_offset 3, -56
	movl	%edi, -356(%rbp)
	movq	%rsi, -368(%rbp)
	movq	%fs:40, %rcx
	movq	%rcx, -56(%rbp)
	xorl	%ecx, %ecx
	movq	$0, -144(%rbp)
	movq	$1, -136(%rbp)
	movq	$2, -128(%rbp)
	movq	$3, -120(%rbp)
	movq	$4, -112(%rbp)
	movq	$5, -104(%rbp)
	movq	$6, -96(%rbp)
	movq	$7, -88(%rbp)
	movq	$8, -80(%rbp)
	movq	$9, -72(%rbp)
	movq	$10, -64(%rbp)
	leaq	-144(%rbp), %rcx
	movq	%rcx, %rax
	movl	$11, %edx
	leaq	-176(%rbp), %rcx
	movq	%rcx, -320(%rbp)
	nop
	nop
	leaq	-176(%rbp), %rcx
	movq	%rax, %rsi
	movq	%rdx, %rdi
	leaq	-304(%rbp), %rax
	movq	%rax, %rdi
.LEHB54:
	call	_ZNSt6vectorIlSaIlEEC1ESt16initializer_listIlERKS0_
.LEHE54:
	nop
	leaq	-144(%rbp), %r12
	movq	%r12, %rbx
	leaq	_ZN2fp3mapIFiiESt6vectorIlSaIlEEEET0_T_S5_(%rip), %rax
	movq	%rax, %rdi
	call	_ZN2fp5curryIPFSt6vectorIlSaIlEEPFiiES3_EJEEEDaT_DpT0_
	movq	%rax, -344(%rbp)
	leaq	-344(%rbp), %rax
	leaq	_Z4add2i(%rip), %rdx
	movq	%rdx, %rsi
	movq	%rax, %rdi
	call	_ZZN2fp5curryIPFSt6vectorIlSaIlEEPFiiES3_EJEEEDaT_DpT0_ENKUlDpT_E_clIJS5_EEEDaSC_
	movq	%rax, -208(%rbp)
	movq	%rdx, -200(%rbp)
	leaq	-208(%rbp), %rax
	movq	%rax, %rsi
	movq	%rbx, %rdi
	call	_ZNSt8functionIFSt6vectorIlSaIlEES2_EEC1IZN2fp5curryIPFS2_PFiiES2_EJS9_EEEDaT_DpT0_EUlDpT_E_vEEOSC_
	leaq	32(%r12), %rbx
	leaq	_ZN2fp6filterIFbiESt6vectorIlSaIlEEEET0_T_S5_(%rip), %rax
	movq	%rax, %rdi
	call	_ZN2fp5curryIPFSt6vectorIlSaIlEEPFbiES3_EJEEEDaT_DpT0_
	movq	%rax, -240(%rbp)
	leaq	-240(%rbp), %rax
	leaq	_Z7is_eveni(%rip), %rdx
	movq	%rdx, %rsi
	movq	%rax, %rdi
	call	_ZZN2fp5curryIPFSt6vectorIlSaIlEEPFbiES3_EJEEEDaT_DpT0_ENKUlDpT_E_clIJS5_EEEDaSC_
	movq	%rax, -176(%rbp)
	movq	%rdx, -168(%rbp)
	leaq	-176(%rbp), %rax
	movq	%rax, %rsi
	movq	%rbx, %rdi
	call	_ZNSt8functionIFSt6vectorIlSaIlEES2_EEC1IZN2fp5curryIPFS2_PFbiES2_EJS9_EEEDaT_DpT0_EUlDpT_E_vEEOSC_
	movq	$1, -376(%rbp)
	leaq	-144(%rbp), %rax
	movq	%rax, %r14
	movl	$2, %r15d
	leaq	-345(%rbp), %rax
	movq	%rax, -312(%rbp)
	nop
	nop
	leaq	-345(%rbp), %rdx
	movq	%r14, %rsi
	movq	%r15, %rdi
	movq	%r14, %rcx
	movq	%r15, %rbx
	movq	%rbx, %rdi
	leaq	-272(%rbp), %rax
	movq	%rdx, %rcx
	movq	%rdi, %rdx
	movq	%rax, %rdi
.LEHB55:
	call	_ZNSt6vectorISt8functionIFS_IlSaIlEES2_EESaIS4_EEC1ESt16initializer_listIS4_ERKS5_
.LEHE55:
	nop
	leaq	-144(%rbp), %rbx
	addq	$64, %rbx
.L277:
	leaq	-144(%rbp), %rax
	cmpq	%rax, %rbx
	je	.L276
	subq	$32, %rbx
	movq	%rbx, %rdi
	call	_ZNSt8functionIFSt6vectorIlSaIlEES2_EED1Ev
	jmp	.L277
.L276:
	leaq	-304(%rbp), %rdx
	leaq	-208(%rbp), %rax
	movq	%rdx, %rsi
	movq	%rax, %rdi
.LEHB56:
	call	_ZNSt6vectorIlSaIlEEC1ERKS1_
.LEHE56:
	leaq	-272(%rbp), %rdx
	leaq	-240(%rbp), %rax
	movq	%rdx, %rsi
	movq	%rax, %rdi
.LEHB57:
	call	_ZNSt6vectorISt8functionIFS_IlSaIlEES2_EESaIS4_EEC1ERKS6_
.LEHE57:
	leaq	-176(%rbp), %rax
	leaq	-208(%rbp), %rdx
	leaq	-240(%rbp), %rcx
	movq	%rcx, %rsi
	movq	%rax, %rdi
.LEHB58:
	call	_ZN2fp7composeISt6vectorISt8functionIFS1_IlSaIlEES4_EESaIS6_EES4_EET0_T_S9_
.LEHE58:
	leaq	-176(%rbp), %rax
	movq	%rax, -336(%rbp)
	leaq	-240(%rbp), %rax
	movq	%rax, %rdi
	call	_ZNSt6vectorISt8functionIFS_IlSaIlEES2_EESaIS4_EED1Ev
	leaq	-208(%rbp), %rax
	movq	%rax, %rdi
	call	_ZNSt6vectorIlSaIlEED1Ev
	movq	-336(%rbp), %rax
	movq	%rax, %rdi
	call	_ZNSt6vectorIlSaIlEE5beginEv
	movq	%rax, -240(%rbp)
	movq	-336(%rbp), %rax
	movq	%rax, %rdi
	call	_ZNSt6vectorIlSaIlEE3endEv
	movq	%rax, -208(%rbp)
	jmp	.L278
.L279:
	leaq	-240(%rbp), %rax
	movq	%rax, %rdi
	call	_ZNK9__gnu_cxx17__normal_iteratorIPlSt6vectorIlSaIlEEEdeEv
	movq	(%rax), %rax
	movq	%rax, -328(%rbp)
	movq	-328(%rbp), %rax
	movq	%rax, %rsi
	leaq	.LC1(%rip), %rax
	movq	%rax, %rdi
.LEHB59:
	call	_ZN4util5printIPKcJlEEEvT_DpT0_
.LEHE59:
	leaq	-240(%rbp), %rax
	movq	%rax, %rdi
	call	_ZN9__gnu_cxx17__normal_iteratorIPlSt6vectorIlSaIlEEEppEv
.L278:
	leaq	-208(%rbp), %rdx
	leaq	-240(%rbp), %rax
	movq	%rdx, %rsi
	movq	%rax, %rdi
	call	_ZN9__gnu_cxxeqIPlSt6vectorIlSaIlEEEEbRKNS_17__normal_iteratorIT_T0_EESA_
	xorl	$1, %eax
	testb	%al, %al
	jne	.L279
	leaq	-176(%rbp), %rax
	movq	%rax, %rdi
	call	_ZNSt6vectorIlSaIlEED1Ev
	movl	$0, %ebx
	leaq	-272(%rbp), %rax
	movq	%rax, %rdi
	call	_ZNSt6vectorISt8functionIFS_IlSaIlEES2_EESaIS4_EED1Ev
	leaq	-304(%rbp), %rax
	movq	%rax, %rdi
	call	_ZNSt6vectorIlSaIlEED1Ev
	movl	%ebx, %eax
	movq	-56(%rbp), %rdx
	subq	%fs:40, %rdx
	je	.L292
	jmp	.L298
.L293:
	movq	%rax, %r13
	leaq	-144(%rbp), %rbx
	addq	$64, %rbx
.L283:
	leaq	-144(%rbp), %rax
	cmpq	%rax, %rbx
	je	.L282
	subq	$32, %rbx
	movq	%rbx, %rdi
	call	_ZNSt8functionIFSt6vectorIlSaIlEES2_EED1Ev
	jmp	.L283
.L282:
	testq	%r12, %r12
	je	.L284
	movl	$1, %eax
	movq	-376(%rbp), %rcx
	subq	%rcx, %rax
	salq	$5, %rax
	leaq	(%r12,%rax), %rbx
.L285:
	cmpq	%r12, %rbx
	je	.L284
	subq	$32, %rbx
	movq	%rbx, %rdi
	call	_ZNSt8functionIFSt6vectorIlSaIlEES2_EED1Ev
	jmp	.L285
.L284:
	movq	%r13, %rbx
	jmp	.L286
.L295:
	movq	%rax, %rbx
	leaq	-240(%rbp), %rax
	movq	%rax, %rdi
	call	_ZNSt6vectorISt8functionIFS_IlSaIlEES2_EESaIS4_EED1Ev
	jmp	.L288
.L294:
	movq	%rax, %rbx
.L288:
	leaq	-208(%rbp), %rax
	movq	%rax, %rdi
	call	_ZNSt6vectorIlSaIlEED1Ev
	jmp	.L289
.L297:
	movq	%rax, %rbx
	leaq	-176(%rbp), %rax
	movq	%rax, %rdi
	call	_ZNSt6vectorIlSaIlEED1Ev
	jmp	.L289
.L296:
	movq	%rax, %rbx
.L289:
	leaq	-272(%rbp), %rax
	movq	%rax, %rdi
	call	_ZNSt6vectorISt8functionIFS_IlSaIlEES2_EESaIS4_EED1Ev
.L286:
	leaq	-304(%rbp), %rax
	movq	%rax, %rdi
	call	_ZNSt6vectorIlSaIlEED1Ev
	movq	%rbx, %rax
	movq	-56(%rbp), %rdx
	subq	%fs:40, %rdx
	je	.L291
	call	__stack_chk_fail@PLT
.L291:
	movq	%rax, %rdi
.LEHB60:
	call	_Unwind_Resume@PLT
.LEHE60:
.L298:
	call	__stack_chk_fail@PLT
.L292:
	addq	$344, %rsp
	popq	%rbx
	popq	%r12
	popq	%r13
	popq	%r14
	popq	%r15
	popq	%rbp
	.cfi_def_cfa 7, 8
	ret
	.cfi_endproc
.LFE4035:
	.section	.gcc_except_table
.LLSDA4035:
	.byte	0xff
	.byte	0xff
	.byte	0x1
	.uleb128 .LLSDACSE4035-.LLSDACSB4035
.LLSDACSB4035:
	.uleb128 .LEHB54-.LFB4035
	.uleb128 .LEHE54-.LEHB54
	.uleb128 0
	.uleb128 0
	.uleb128 .LEHB55-.LFB4035
	.uleb128 .LEHE55-.LEHB55
	.uleb128 .L293-.LFB4035
	.uleb128 0
	.uleb128 .LEHB56-.LFB4035
	.uleb128 .LEHE56-.LEHB56
	.uleb128 .L296-.LFB4035
	.uleb128 0
	.uleb128 .LEHB57-.LFB4035
	.uleb128 .LEHE57-.LEHB57
	.uleb128 .L294-.LFB4035
	.uleb128 0
	.uleb128 .LEHB58-.LFB4035
	.uleb128 .LEHE58-.LEHB58
	.uleb128 .L295-.LFB4035
	.uleb128 0
	.uleb128 .LEHB59-.LFB4035
	.uleb128 .LEHE59-.LEHB59
	.uleb128 .L297-.LFB4035
	.uleb128 0
	.uleb128 .LEHB60-.LFB4035
	.uleb128 .LEHE60-.LEHB60
	.uleb128 0
	.uleb128 0
.LLSDACSE4035:
	.text
	.size	main, .-main
	.section	.text._ZSt3maxImERKT_S2_S2_,"axG",@progbits,_ZSt3maxImERKT_S2_S2_,comdat
	.weak	_ZSt3maxImERKT_S2_S2_
	.type	_ZSt3maxImERKT_S2_S2_, @function
_ZSt3maxImERKT_S2_S2_:
.LFB4392:
	.cfi_startproc
	pushq	%rbp
	.cfi_def_cfa_offset 16
	.cfi_offset 6, -16
	movq	%rsp, %rbp
	.cfi_def_cfa_register 6
	movq	%rdi, -8(%rbp)
	movq	%rsi, -16(%rbp)
	movq	-8(%rbp), %rax
	movq	(%rax), %rdx
	movq	-16(%rbp), %rax
	movq	(%rax), %rax
	cmpq	%rax, %rdx
	jnb	.L300
	movq	-16(%rbp), %rax
	jmp	.L301
.L300:
	movq	-8(%rbp), %rax
.L301:
	popq	%rbp
	.cfi_def_cfa 7, 8
	ret
	.cfi_endproc
.LFE4392:
	.size	_ZSt3maxImERKT_S2_S2_, .-_ZSt3maxImERKT_S2_S2_
	.section	.text._ZNSt12_Vector_baseIiSaIiEED2Ev,"axG",@progbits,_ZNSt12_Vector_baseIiSaIiEED5Ev,comdat
	.align 2
	.weak	_ZNSt12_Vector_baseIiSaIiEED2Ev
	.type	_ZNSt12_Vector_baseIiSaIiEED2Ev, @function
_ZNSt12_Vector_baseIiSaIiEED2Ev:
.LFB4405:
	.cfi_startproc
	.cfi_personality 0x9b,DW.ref.__gxx_personality_v0
	.cfi_lsda 0x1b,.LLSDA4405
	pushq	%rbp
	.cfi_def_cfa_offset 16
	.cfi_offset 6, -16
	movq	%rsp, %rbp
	.cfi_def_cfa_register 6
	subq	$16, %rsp
	movq	%rdi, -8(%rbp)
	movq	-8(%rbp), %rax
	movq	16(%rax), %rdx
	movq	-8(%rbp), %rax
	movq	(%rax), %rax
	subq	%rax, %rdx
	movq	%rdx, %rax
	sarq	$2, %rax
	movq	%rax, %rdx
	movq	-8(%rbp), %rax
	movq	(%rax), %rcx
	movq	-8(%rbp), %rax
	movq	%rcx, %rsi
	movq	%rax, %rdi
	call	_ZNSt12_Vector_baseIiSaIiEE13_M_deallocateEPim
	movq	-8(%rbp), %rax
	movq	%rax, %rdi
	call	_ZNSt12_Vector_baseIiSaIiEE12_Vector_implD1Ev
	nop
	leave
	.cfi_def_cfa 7, 8
	ret
	.cfi_endproc
.LFE4405:
	.section	.gcc_except_table
.LLSDA4405:
	.byte	0xff
	.byte	0xff
	.byte	0x1
	.uleb128 .LLSDACSE4405-.LLSDACSB4405
.LLSDACSB4405:
.LLSDACSE4405:
	.section	.text._ZNSt12_Vector_baseIiSaIiEED2Ev,"axG",@progbits,_ZNSt12_Vector_baseIiSaIiEED5Ev,comdat
	.size	_ZNSt12_Vector_baseIiSaIiEED2Ev, .-_ZNSt12_Vector_baseIiSaIiEED2Ev
	.weak	_ZNSt12_Vector_baseIiSaIiEED1Ev
	.set	_ZNSt12_Vector_baseIiSaIiEED1Ev,_ZNSt12_Vector_baseIiSaIiEED2Ev
	.section	.text._ZNSt6vectorIiSaIiEED2Ev,"axG",@progbits,_ZNSt6vectorIiSaIiEED5Ev,comdat
	.align 2
	.weak	_ZNSt6vectorIiSaIiEED2Ev
	.type	_ZNSt6vectorIiSaIiEED2Ev, @function
_ZNSt6vectorIiSaIiEED2Ev:
.LFB4408:
	.cfi_startproc
	.cfi_personality 0x9b,DW.ref.__gxx_personality_v0
	.cfi_lsda 0x1b,.LLSDA4408
	pushq	%rbp
	.cfi_def_cfa_offset 16
	.cfi_offset 6, -16
	movq	%rsp, %rbp
	.cfi_def_cfa_register 6
	subq	$48, %rsp
	movq	%rdi, -40(%rbp)
	movq	-40(%rbp), %rax
	movq	%rax, %rdi
	call	_ZNSt12_Vector_baseIiSaIiEE19_M_get_Tp_allocatorEv
	movq	-40(%rbp), %rdx
	movq	8(%rdx), %rdx
	movq	-40(%rbp), %rcx
	movq	(%rcx), %rcx
	movq	%rcx, -24(%rbp)
	movq	%rdx, -16(%rbp)
	movq	%rax, -8(%rbp)
	movq	-16(%rbp), %rdx
	movq	-24(%rbp), %rax
	movq	%rdx, %rsi
	movq	%rax, %rdi
	call	_ZSt8_DestroyIPiEvT_S1_
	nop
	movq	-40(%rbp), %rax
	movq	%rax, %rdi
	call	_ZNSt12_Vector_baseIiSaIiEED2Ev
	nop
	leave
	.cfi_def_cfa 7, 8
	ret
	.cfi_endproc
.LFE4408:
	.section	.gcc_except_table
.LLSDA4408:
	.byte	0xff
	.byte	0xff
	.byte	0x1
	.uleb128 .LLSDACSE4408-.LLSDACSB4408
.LLSDACSB4408:
.LLSDACSE4408:
	.section	.text._ZNSt6vectorIiSaIiEED2Ev,"axG",@progbits,_ZNSt6vectorIiSaIiEED5Ev,comdat
	.size	_ZNSt6vectorIiSaIiEED2Ev, .-_ZNSt6vectorIiSaIiEED2Ev
	.weak	_ZNSt6vectorIiSaIiEED1Ev
	.set	_ZNSt6vectorIiSaIiEED1Ev,_ZNSt6vectorIiSaIiEED2Ev
	.section	.text._ZNKSt8functionIFiiEEclEi,"axG",@progbits,_ZNKSt8functionIFiiEEclEi,comdat
	.align 2
	.weak	_ZNKSt8functionIFiiEEclEi
	.type	_ZNKSt8functionIFiiEEclEi, @function
_ZNKSt8functionIFiiEEclEi:
.LFB4410:
	.cfi_startproc
	pushq	%rbp
	.cfi_def_cfa_offset 16
	.cfi_offset 6, -16
	movq	%rsp, %rbp
	.cfi_def_cfa_register 6
	pushq	%rbx
	subq	$24, %rsp
	.cfi_offset 3, -24
	movq	%rdi, -24(%rbp)
	movl	%esi, -28(%rbp)
	movq	-24(%rbp), %rax
	movq	%rax, %rdi
	call	_ZNKSt14_Function_base8_M_emptyEv
	testb	%al, %al
	je	.L305
	call	_ZSt25__throw_bad_function_callv@PLT
.L305:
	movq	-24(%rbp), %rax
	movq	24(%rax), %rbx
	leaq	-28(%rbp), %rax
	movq	%rax, %rdi
	call	_ZSt7forwardIiEOT_RNSt16remove_referenceIS0_E4typeE
	movq	%rax, %rdx
	movq	-24(%rbp), %rax
	movq	%rdx, %rsi
	movq	%rax, %rdi
	call	*%rbx
	movq	-8(%rbp), %rbx
	leave
	.cfi_def_cfa 7, 8
	ret
	.cfi_endproc
.LFE4410:
	.size	_ZNKSt8functionIFiiEEclEi, .-_ZNKSt8functionIFiiEEclEi
	.section	.text._ZNSt6vectorIiSaIiEE9push_backEOi,"axG",@progbits,_ZNSt6vectorIiSaIiEE9push_backEOi,comdat
	.align 2
	.weak	_ZNSt6vectorIiSaIiEE9push_backEOi
	.type	_ZNSt6vectorIiSaIiEE9push_backEOi, @function
_ZNSt6vectorIiSaIiEE9push_backEOi:
.LFB4411:
	.cfi_startproc
	pushq	%rbp
	.cfi_def_cfa_offset 16
	.cfi_offset 6, -16
	movq	%rsp, %rbp
	.cfi_def_cfa_register 6
	subq	$16, %rsp
	movq	%rdi, -8(%rbp)
	movq	%rsi, -16(%rbp)
	movq	-16(%rbp), %rax
	movq	%rax, %rdi
	call	_ZSt4moveIRiEONSt16remove_referenceIT_E4typeEOS2_
	movq	%rax, %rdx
	movq	-8(%rbp), %rax
	movq	%rdx, %rsi
	movq	%rax, %rdi
	call	_ZNSt6vectorIiSaIiEE12emplace_backIJiEEERiDpOT_
	nop
	leave
	.cfi_def_cfa 7, 8
	ret
	.cfi_endproc
.LFE4411:
	.size	_ZNSt6vectorIiSaIiEE9push_backEOi, .-_ZNSt6vectorIiSaIiEE9push_backEOi
	.section	.text._ZNSt12_Vector_baseIiSaIiEE12_Vector_implC2EOS2_,"axG",@progbits,_ZNSt12_Vector_baseIiSaIiEE12_Vector_implC5EOS2_,comdat
	.align 2
	.weak	_ZNSt12_Vector_baseIiSaIiEE12_Vector_implC2EOS2_
	.type	_ZNSt12_Vector_baseIiSaIiEE12_Vector_implC2EOS2_, @function
_ZNSt12_Vector_baseIiSaIiEE12_Vector_implC2EOS2_:
.LFB4413:
	.cfi_startproc
	pushq	%rbp
	.cfi_def_cfa_offset 16
	.cfi_offset 6, -16
	movq	%rsp, %rbp
	.cfi_def_cfa_register 6
	pushq	%rbx
	subq	$56, %rsp
	.cfi_offset 3, -24
	movq	%rdi, -56(%rbp)
	movq	%rsi, -64(%rbp)
	movq	-64(%rbp), %rax
	movq	%rax, %rdi
	call	_ZSt4moveIRNSt12_Vector_baseIiSaIiEE12_Vector_implEEONSt16remove_referenceIT_E4typeEOS6_
	movq	-56(%rbp), %rdx
	movq	%rdx, -48(%rbp)
	movq	%rax, -40(%rbp)
	movq	-48(%rbp), %rax
	movq	%rax, -32(%rbp)
	movq	-40(%rbp), %rax
	movq	%rax, -24(%rbp)
	nop
	nop
	movq	-56(%rbp), %rbx
	movq	-64(%rbp), %rax
	movq	%rax, %rdi
	call	_ZSt4moveIRNSt12_Vector_baseIiSaIiEE12_Vector_implEEONSt16remove_referenceIT_E4typeEOS6_
	movq	%rax, %rsi
	movq	%rbx, %rdi
	call	_ZNSt12_Vector_baseIiSaIiEE17_Vector_impl_dataC2EOS2_
	nop
	movq	-8(%rbp), %rbx
	leave
	.cfi_def_cfa 7, 8
	ret
	.cfi_endproc
.LFE4413:
	.size	_ZNSt12_Vector_baseIiSaIiEE12_Vector_implC2EOS2_, .-_ZNSt12_Vector_baseIiSaIiEE12_Vector_implC2EOS2_
	.weak	_ZNSt12_Vector_baseIiSaIiEE12_Vector_implC1EOS2_
	.set	_ZNSt12_Vector_baseIiSaIiEE12_Vector_implC1EOS2_,_ZNSt12_Vector_baseIiSaIiEE12_Vector_implC2EOS2_
	.section	.text._ZNSt14_Function_baseC2Ev,"axG",@progbits,_ZNSt14_Function_baseC5Ev,comdat
	.align 2
	.weak	_ZNSt14_Function_baseC2Ev
	.type	_ZNSt14_Function_baseC2Ev, @function
_ZNSt14_Function_baseC2Ev:
.LFB4417:
	.cfi_startproc
	pushq	%rbp
	.cfi_def_cfa_offset 16
	.cfi_offset 6, -16
	movq	%rsp, %rbp
	.cfi_def_cfa_register 6
	movq	%rdi, -8(%rbp)
	movq	-8(%rbp), %rax
	movq	$0, (%rax)
	movq	$0, 8(%rax)
	movq	-8(%rbp), %rax
	movq	$0, 16(%rax)
	nop
	popq	%rbp
	.cfi_def_cfa 7, 8
	ret
	.cfi_endproc
.LFE4417:
	.size	_ZNSt14_Function_baseC2Ev, .-_ZNSt14_Function_baseC2Ev
	.weak	_ZNSt14_Function_baseC1Ev
	.set	_ZNSt14_Function_baseC1Ev,_ZNSt14_Function_baseC2Ev
	.section	.text._ZNSt8functionIFiiEEC2ERKS1_,"axG",@progbits,_ZNSt8functionIFiiEEC5ERKS1_,comdat
	.align 2
	.weak	_ZNSt8functionIFiiEEC2ERKS1_
	.type	_ZNSt8functionIFiiEEC2ERKS1_, @function
_ZNSt8functionIFiiEEC2ERKS1_:
.LFB4419:
	.cfi_startproc
	.cfi_personality 0x9b,DW.ref.__gxx_personality_v0
	.cfi_lsda 0x1b,.LLSDA4419
	pushq	%rbp
	.cfi_def_cfa_offset 16
	.cfi_offset 6, -16
	movq	%rsp, %rbp
	.cfi_def_cfa_register 6
	pushq	%rbx
	subq	$24, %rsp
	.cfi_offset 3, -24
	movq	%rdi, -24(%rbp)
	movq	%rsi, -32(%rbp)
	movq	-24(%rbp), %rax
	pxor	%xmm0, %xmm0
	movups	%xmm0, (%rax)
	movq	%xmm0, 16(%rax)
	movq	-24(%rbp), %rax
	movq	%rax, %rdi
	call	_ZNSt14_Function_baseC2Ev
	movq	-24(%rbp), %rax
	movq	$0, 24(%rax)
	movq	-32(%rbp), %rax
	movq	%rax, %rdi
	call	_ZNKSt8functionIFiiEEcvbEv
	testb	%al, %al
	je	.L314
	movq	-32(%rbp), %rax
	movq	16(%rax), %r8
	movq	-32(%rbp), %rcx
	movq	-24(%rbp), %rax
	movl	$2, %edx
	movq	%rcx, %rsi
	movq	%rax, %rdi
.LEHB61:
	call	*%r8
.LEHE61:
	movq	-32(%rbp), %rax
	movq	24(%rax), %rdx
	movq	-24(%rbp), %rax
	movq	%rdx, 24(%rax)
	movq	-32(%rbp), %rax
	movq	16(%rax), %rdx
	movq	-24(%rbp), %rax
	movq	%rdx, 16(%rax)
	jmp	.L314
.L313:
	movq	%rax, %rbx
	movq	-24(%rbp), %rax
	movq	%rax, %rdi
	call	_ZNSt14_Function_baseD2Ev
	movq	%rbx, %rax
	movq	%rax, %rdi
.LEHB62:
	call	_Unwind_Resume@PLT
.LEHE62:
.L314:
	nop
	movq	-8(%rbp), %rbx
	leave
	.cfi_def_cfa 7, 8
	ret
	.cfi_endproc
.LFE4419:
	.section	.gcc_except_table
.LLSDA4419:
	.byte	0xff
	.byte	0xff
	.byte	0x1
	.uleb128 .LLSDACSE4419-.LLSDACSB4419
.LLSDACSB4419:
	.uleb128 .LEHB61-.LFB4419
	.uleb128 .LEHE61-.LEHB61
	.uleb128 .L313-.LFB4419
	.uleb128 0
	.uleb128 .LEHB62-.LFB4419
	.uleb128 .LEHE62-.LEHB62
	.uleb128 0
	.uleb128 0
.LLSDACSE4419:
	.section	.text._ZNSt8functionIFiiEEC2ERKS1_,"axG",@progbits,_ZNSt8functionIFiiEEC5ERKS1_,comdat
	.size	_ZNSt8functionIFiiEEC2ERKS1_, .-_ZNSt8functionIFiiEEC2ERKS1_
	.weak	_ZNSt8functionIFiiEEC1ERKS1_
	.set	_ZNSt8functionIFiiEEC1ERKS1_,_ZNSt8functionIFiiEEC2ERKS1_
	.section	.text._ZNSt6vectorIiSaIiEEC2ERKS1_,"axG",@progbits,_ZNSt6vectorIiSaIiEEC5ERKS1_,comdat
	.align 2
	.weak	_ZNSt6vectorIiSaIiEEC2ERKS1_
	.type	_ZNSt6vectorIiSaIiEEC2ERKS1_, @function
_ZNSt6vectorIiSaIiEEC2ERKS1_:
.LFB4422:
	.cfi_startproc
	.cfi_personality 0x9b,DW.ref.__gxx_personality_v0
	.cfi_lsda 0x1b,.LLSDA4422
	pushq	%rbp
	.cfi_def_cfa_offset 16
	.cfi_offset 6, -16
	movq	%rsp, %rbp
	.cfi_def_cfa_register 6
	pushq	%r13
	pushq	%r12
	pushq	%rbx
	subq	$88, %rsp
	.cfi_offset 13, -24
	.cfi_offset 12, -32
	.cfi_offset 3, -40
	movq	%rdi, -104(%rbp)
	movq	%rsi, -112(%rbp)
	movq	%fs:40, %rax
	movq	%rax, -40(%rbp)
	xorl	%eax, %eax
	movq	-104(%rbp), %rbx
	movq	-112(%rbp), %rax
	movq	%rax, %rdi
	call	_ZNKSt12_Vector_baseIiSaIiEE19_M_get_Tp_allocatorEv
	movq	%rax, -88(%rbp)
	leaq	-89(%rbp), %rax
	movq	-88(%rbp), %rdx
	movq	%rdx, -80(%rbp)
	movq	%rax, -72(%rbp)
	movq	-80(%rbp), %rax
	movq	%rax, -64(%rbp)
	movq	-72(%rbp), %rax
	movq	%rax, -56(%rbp)
	movq	-64(%rbp), %rax
	movq	%rax, -48(%rbp)
	nop
	nop
	nop
	nop
	movq	-112(%rbp), %rax
	movq	%rax, %rdi
	call	_ZNKSt6vectorIiSaIiEE4sizeEv
	movq	%rax, %rcx
	leaq	-89(%rbp), %rax
	movq	%rax, %rdx
	movq	%rcx, %rsi
	movq	%rbx, %rdi
.LEHB63:
	call	_ZNSt12_Vector_baseIiSaIiEEC2EmRKS0_
.LEHE63:
	nop
	movq	-104(%rbp), %rax
	movq	%rax, %rdi
	call	_ZNSt12_Vector_baseIiSaIiEE19_M_get_Tp_allocatorEv
	movq	%rax, %r13
	movq	-104(%rbp), %rax
	movq	(%rax), %rbx
	movq	-112(%rbp), %rax
	movq	%rax, %rdi
	call	_ZNKSt6vectorIiSaIiEE3endEv
	movq	%rax, %r12
	movq	-112(%rbp), %rax
	movq	%rax, %rdi
	call	_ZNKSt6vectorIiSaIiEE5beginEv
	movq	%r13, %rcx
	movq	%rbx, %rdx
	movq	%r12, %rsi
	movq	%rax, %rdi
.LEHB64:
	call	_ZSt22__uninitialized_copy_aIN9__gnu_cxx17__normal_iteratorIPKiSt6vectorIiSaIiEEEEPiiET0_T_SA_S9_RSaIT1_E
.LEHE64:
	movq	-104(%rbp), %rdx
	movq	%rax, 8(%rdx)
	nop
	movq	-40(%rbp), %rax
	subq	%fs:40, %rax
	je	.L320
	jmp	.L322
.L321:
	movq	%rax, %rbx
	movq	-104(%rbp), %rax
	movq	%rax, %rdi
	call	_ZNSt12_Vector_baseIiSaIiEED2Ev
	movq	%rbx, %rax
	movq	-40(%rbp), %rdx
	subq	%fs:40, %rdx
	je	.L319
	call	__stack_chk_fail@PLT
.L319:
	movq	%rax, %rdi
.LEHB65:
	call	_Unwind_Resume@PLT
.LEHE65:
.L322:
	call	__stack_chk_fail@PLT
.L320:
	addq	$88, %rsp
	popq	%rbx
	popq	%r12
	popq	%r13
	popq	%rbp
	.cfi_def_cfa 7, 8
	ret
	.cfi_endproc
.LFE4422:
	.section	.gcc_except_table
.LLSDA4422:
	.byte	0xff
	.byte	0xff
	.byte	0x1
	.uleb128 .LLSDACSE4422-.LLSDACSB4422
.LLSDACSB4422:
	.uleb128 .LEHB63-.LFB4422
	.uleb128 .LEHE63-.LEHB63
	.uleb128 0
	.uleb128 0
	.uleb128 .LEHB64-.LFB4422
	.uleb128 .LEHE64-.LEHB64
	.uleb128 .L321-.LFB4422
	.uleb128 0
	.uleb128 .LEHB65-.LFB4422
	.uleb128 .LEHE65-.LEHB65
	.uleb128 0
	.uleb128 0
.LLSDACSE4422:
	.section	.text._ZNSt6vectorIiSaIiEEC2ERKS1_,"axG",@progbits,_ZNSt6vectorIiSaIiEEC5ERKS1_,comdat
	.size	_ZNSt6vectorIiSaIiEEC2ERKS1_, .-_ZNSt6vectorIiSaIiEEC2ERKS1_
	.weak	_ZNSt6vectorIiSaIiEEC1ERKS1_
	.set	_ZNSt6vectorIiSaIiEEC1ERKS1_,_ZNSt6vectorIiSaIiEEC2ERKS1_
	.section	.text._ZNKSt6vectorIiSaIiEE4sizeEv,"axG",@progbits,_ZNKSt6vectorIiSaIiEE4sizeEv,comdat
	.align 2
	.weak	_ZNKSt6vectorIiSaIiEE4sizeEv
	.type	_ZNKSt6vectorIiSaIiEE4sizeEv, @function
_ZNKSt6vectorIiSaIiEE4sizeEv:
.LFB4425:
	.cfi_startproc
	pushq	%rbp
	.cfi_def_cfa_offset 16
	.cfi_offset 6, -16
	movq	%rsp, %rbp
	.cfi_def_cfa_register 6
	movq	%rdi, -8(%rbp)
	movq	-8(%rbp), %rax
	movq	8(%rax), %rdx
	movq	-8(%rbp), %rax
	movq	(%rax), %rax
	subq	%rax, %rdx
	movq	%rdx, %rax
	sarq	$2, %rax
	popq	%rbp
	.cfi_def_cfa 7, 8
	ret
	.cfi_endproc
.LFE4425:
	.size	_ZNKSt6vectorIiSaIiEE4sizeEv, .-_ZNKSt6vectorIiSaIiEE4sizeEv
	.section	.text._ZNSt6vectorIiSaIiEE5beginEv,"axG",@progbits,_ZNSt6vectorIiSaIiEE5beginEv,comdat
	.align 2
	.weak	_ZNSt6vectorIiSaIiEE5beginEv
	.type	_ZNSt6vectorIiSaIiEE5beginEv, @function
_ZNSt6vectorIiSaIiEE5beginEv:
.LFB4426:
	.cfi_startproc
	pushq	%rbp
	.cfi_def_cfa_offset 16
	.cfi_offset 6, -16
	movq	%rsp, %rbp
	.cfi_def_cfa_register 6
	subq	$32, %rsp
	movq	%rdi, -24(%rbp)
	movq	%fs:40, %rax
	movq	%rax, -8(%rbp)
	xorl	%eax, %eax
	movq	-24(%rbp), %rdx
	leaq	-16(%rbp), %rax
	movq	%rdx, %rsi
	movq	%rax, %rdi
	call	_ZN9__gnu_cxx17__normal_iteratorIPiSt6vectorIiSaIiEEEC1ERKS1_
	movq	-16(%rbp), %rax
	movq	-8(%rbp), %rdx
	subq	%fs:40, %rdx
	je	.L327
	call	__stack_chk_fail@PLT
.L327:
	leave
	.cfi_def_cfa 7, 8
	ret
	.cfi_endproc
.LFE4426:
	.size	_ZNSt6vectorIiSaIiEE5beginEv, .-_ZNSt6vectorIiSaIiEE5beginEv
	.section	.text._ZN9__gnu_cxx17__normal_iteratorIPiSt6vectorIiSaIiEEEC2ERKS1_,"axG",@progbits,_ZN9__gnu_cxx17__normal_iteratorIPiSt6vectorIiSaIiEEEC5ERKS1_,comdat
	.align 2
	.weak	_ZN9__gnu_cxx17__normal_iteratorIPiSt6vectorIiSaIiEEEC2ERKS1_
	.type	_ZN9__gnu_cxx17__normal_iteratorIPiSt6vectorIiSaIiEEEC2ERKS1_, @function
_ZN9__gnu_cxx17__normal_iteratorIPiSt6vectorIiSaIiEEEC2ERKS1_:
.LFB4428:
	.cfi_startproc
	pushq	%rbp
	.cfi_def_cfa_offset 16
	.cfi_offset 6, -16
	movq	%rsp, %rbp
	.cfi_def_cfa_register 6
	movq	%rdi, -8(%rbp)
	movq	%rsi, -16(%rbp)
	movq	-16(%rbp), %rax
	movq	(%rax), %rdx
	movq	-8(%rbp), %rax
	movq	%rdx, (%rax)
	nop
	popq	%rbp
	.cfi_def_cfa 7, 8
	ret
	.cfi_endproc
.LFE4428:
	.size	_ZN9__gnu_cxx17__normal_iteratorIPiSt6vectorIiSaIiEEEC2ERKS1_, .-_ZN9__gnu_cxx17__normal_iteratorIPiSt6vectorIiSaIiEEEC2ERKS1_
	.weak	_ZN9__gnu_cxx17__normal_iteratorIPiSt6vectorIiSaIiEEEC1ERKS1_
	.set	_ZN9__gnu_cxx17__normal_iteratorIPiSt6vectorIiSaIiEEEC1ERKS1_,_ZN9__gnu_cxx17__normal_iteratorIPiSt6vectorIiSaIiEEEC2ERKS1_
	.text
	.align 2
	.type	_ZZN11fp_specific7int_mapESt8functionIFiiEESt6vectorIiSaIiEEENUlS5_iE_C2ERKS6_, @function
_ZZN11fp_specific7int_mapESt8functionIFiiEESt6vectorIiSaIiEEENUlS5_iE_C2ERKS6_:
.LFB4431:
	.cfi_startproc
	pushq	%rbp
	.cfi_def_cfa_offset 16
	.cfi_offset 6, -16
	movq	%rsp, %rbp
	.cfi_def_cfa_register 6
	subq	$16, %rsp
	movq	%rdi, -8(%rbp)
	movq	%rsi, -16(%rbp)
	movq	-8(%rbp), %rax
	movq	-16(%rbp), %rdx
	movq	%rdx, %rsi
	movq	%rax, %rdi
	call	_ZNSt8functionIFiiEEC1ERKS1_
	nop
	leave
	.cfi_def_cfa 7, 8
	ret
	.cfi_endproc
.LFE4431:
	.size	_ZZN11fp_specific7int_mapESt8functionIFiiEESt6vectorIiSaIiEEENUlS5_iE_C2ERKS6_, .-_ZZN11fp_specific7int_mapESt8functionIFiiEESt6vectorIiSaIiEEENUlS5_iE_C2ERKS6_
	.set	_ZZN11fp_specific7int_mapESt8functionIFiiEESt6vectorIiSaIiEEENUlS5_iE_C1ERKS6_,_ZZN11fp_specific7int_mapESt8functionIFiiEESt6vectorIiSaIiEEENUlS5_iE_C2ERKS6_
	.type	_ZN2fp6reduceIZN11fp_specific7int_mapESt8functionIFiiEESt6vectorIiSaIiEEEUlS7_iE_S7_S7_EET1_T_T0_S9_, @function
_ZN2fp6reduceIZN11fp_specific7int_mapESt8functionIFiiEESt6vectorIiSaIiEEEUlS7_iE_S7_S7_EET1_T_T0_S9_:
.LFB4424:
	.cfi_startproc
	.cfi_personality 0x9b,DW.ref.__gxx_personality_v0
	.cfi_lsda 0x1b,.LLSDA4424
	pushq	%rbp
	.cfi_def_cfa_offset 16
	.cfi_offset 6, -16
	movq	%rsp, %rbp
	.cfi_def_cfa_register 6
	pushq	%rbx
	subq	$232, %rsp
	.cfi_offset 3, -24
	movq	%rdi, -216(%rbp)
	movq	%rsi, -224(%rbp)
	movq	%rdx, -232(%rbp)
	movq	%rcx, -240(%rbp)
	movq	%fs:40, %rax
	movq	%rax, -24(%rbp)
	xorl	%eax, %eax
	movq	-232(%rbp), %rax
	movq	%rax, %rdi
	call	_ZNKSt6vectorIiSaIiEE4sizeEv
	testq	%rax, %rax
	sete	%al
	testb	%al, %al
	je	.L331
	movq	-240(%rbp), %rdx
	movq	-216(%rbp), %rax
	movq	%rdx, %rsi
	movq	%rax, %rdi
	call	_ZNSt6vectorIiSaIiEEC1EOS1_
	jmp	.L330
.L331:
	leaq	-128(%rbp), %rax
	movq	%rax, -200(%rbp)
	nop
	nop
	movq	-232(%rbp), %rax
	movq	%rax, %rdi
	call	_ZNSt6vectorIiSaIiEE3endEv
	movq	%rax, %rbx
	movq	-232(%rbp), %rax
	movq	%rax, %rdi
	call	_ZNSt6vectorIiSaIiEE5beginEv
	movq	%rax, -96(%rbp)
	leaq	-96(%rbp), %rax
	movl	$1, %esi
	movq	%rax, %rdi
	call	_ZNK9__gnu_cxx17__normal_iteratorIPiSt6vectorIiSaIiEEEplEl
	movq	%rax, %rsi
	leaq	-128(%rbp), %rdx
	leaq	-192(%rbp), %rax
	movq	%rdx, %rcx
	movq	%rbx, %rdx
	movq	%rax, %rdi
.LEHB66:
	call	_ZNSt6vectorIiSaIiEEC1IN9__gnu_cxx17__normal_iteratorIPiS1_EEvEET_S7_RKS0_
.LEHE66:
	nop
	movq	-232(%rbp), %rax
	movl	$0, %esi
	movq	%rax, %rdi
	call	_ZNSt6vectorIiSaIiEEixEm
	movl	(%rax), %ebx
	movq	-240(%rbp), %rdx
	leaq	-160(%rbp), %rax
	movq	%rdx, %rsi
	movq	%rax, %rdi
.LEHB67:
	call	_ZNSt6vectorIiSaIiEEC1ERKS1_
.LEHE67:
	leaq	-128(%rbp), %rax
	leaq	-160(%rbp), %rdx
	movq	-224(%rbp), %rsi
	movl	%ebx, %ecx
	movq	%rax, %rdi
.LEHB68:
	call	_ZZN11fp_specific7int_mapESt8functionIFiiEESt6vectorIiSaIiEEENKUlS5_iE_clES5_i
.LEHE68:
	leaq	-192(%rbp), %rdx
	leaq	-96(%rbp), %rax
	movq	%rdx, %rsi
	movq	%rax, %rdi
.LEHB69:
	call	_ZNSt6vectorIiSaIiEEC1ERKS1_
.LEHE69:
	movq	-224(%rbp), %rdx
	leaq	-64(%rbp), %rax
	movq	%rdx, %rsi
	movq	%rax, %rdi
.LEHB70:
	call	_ZZN11fp_specific7int_mapESt8functionIFiiEESt6vectorIiSaIiEEENUlS5_iE_C1ERKS6_
.LEHE70:
	movq	-216(%rbp), %rax
	leaq	-128(%rbp), %rcx
	leaq	-96(%rbp), %rdx
	leaq	-64(%rbp), %rsi
	movq	%rax, %rdi
.LEHB71:
	call	_ZN2fp6reduceIZN11fp_specific7int_mapESt8functionIFiiEESt6vectorIiSaIiEEEUlS7_iE_S7_S7_EET1_T_T0_S9_
.LEHE71:
	leaq	-64(%rbp), %rax
	movq	%rax, %rdi
	call	_ZZN11fp_specific7int_mapESt8functionIFiiEESt6vectorIiSaIiEEENUlS5_iE_D1Ev
	leaq	-96(%rbp), %rax
	movq	%rax, %rdi
	call	_ZNSt6vectorIiSaIiEED1Ev
	leaq	-128(%rbp), %rax
	movq	%rax, %rdi
	call	_ZNSt6vectorIiSaIiEED1Ev
	leaq	-160(%rbp), %rax
	movq	%rax, %rdi
	call	_ZNSt6vectorIiSaIiEED1Ev
	leaq	-192(%rbp), %rax
	movq	%rax, %rdi
	call	_ZNSt6vectorIiSaIiEED1Ev
	jmp	.L330
.L343:
	nop
	movq	-24(%rbp), %rdx
	subq	%fs:40, %rdx
	je	.L335
	call	__stack_chk_fail@PLT
.L335:
	movq	%rax, %rdi
.LEHB72:
	call	_Unwind_Resume@PLT
.L348:
	movq	%rax, %rbx
	leaq	-64(%rbp), %rax
	movq	%rax, %rdi
	call	_ZZN11fp_specific7int_mapESt8functionIFiiEESt6vectorIiSaIiEEENUlS5_iE_D1Ev
	jmp	.L337
.L347:
	movq	%rax, %rbx
.L337:
	leaq	-96(%rbp), %rax
	movq	%rax, %rdi
	call	_ZNSt6vectorIiSaIiEED1Ev
	jmp	.L338
.L346:
	movq	%rax, %rbx
.L338:
	leaq	-128(%rbp), %rax
	movq	%rax, %rdi
	call	_ZNSt6vectorIiSaIiEED1Ev
	jmp	.L339
.L345:
	movq	%rax, %rbx
.L339:
	leaq	-160(%rbp), %rax
	movq	%rax, %rdi
	call	_ZNSt6vectorIiSaIiEED1Ev
	jmp	.L340
.L344:
	movq	%rax, %rbx
.L340:
	leaq	-192(%rbp), %rax
	movq	%rax, %rdi
	call	_ZNSt6vectorIiSaIiEED1Ev
	movq	%rbx, %rax
	movq	-24(%rbp), %rdx
	subq	%fs:40, %rdx
	je	.L341
	call	__stack_chk_fail@PLT
.L341:
	movq	%rax, %rdi
	call	_Unwind_Resume@PLT
.LEHE72:
.L330:
	movq	-24(%rbp), %rax
	subq	%fs:40, %rax
	je	.L342
	call	__stack_chk_fail@PLT
.L342:
	movq	-216(%rbp), %rax
	movq	-8(%rbp), %rbx
	leave
	.cfi_def_cfa 7, 8
	ret
	.cfi_endproc
.LFE4424:
	.section	.gcc_except_table
.LLSDA4424:
	.byte	0xff
	.byte	0xff
	.byte	0x1
	.uleb128 .LLSDACSE4424-.LLSDACSB4424
.LLSDACSB4424:
	.uleb128 .LEHB66-.LFB4424
	.uleb128 .LEHE66-.LEHB66
	.uleb128 .L343-.LFB4424
	.uleb128 0
	.uleb128 .LEHB67-.LFB4424
	.uleb128 .LEHE67-.LEHB67
	.uleb128 .L344-.LFB4424
	.uleb128 0
	.uleb128 .LEHB68-.LFB4424
	.uleb128 .LEHE68-.LEHB68
	.uleb128 .L345-.LFB4424
	.uleb128 0
	.uleb128 .LEHB69-.LFB4424
	.uleb128 .LEHE69-.LEHB69
	.uleb128 .L346-.LFB4424
	.uleb128 0
	.uleb128 .LEHB70-.LFB4424
	.uleb128 .LEHE70-.LEHB70
	.uleb128 .L347-.LFB4424
	.uleb128 0
	.uleb128 .LEHB71-.LFB4424
	.uleb128 .LEHE71-.LEHB71
	.uleb128 .L348-.LFB4424
	.uleb128 0
	.uleb128 .LEHB72-.LFB4424
	.uleb128 .LEHE72-.LEHB72
	.uleb128 0
	.uleb128 0
.LLSDACSE4424:
	.text
	.size	_ZN2fp6reduceIZN11fp_specific7int_mapESt8functionIFiiEESt6vectorIiSaIiEEEUlS7_iE_S7_S7_EET1_T_T0_S9_, .-_ZN2fp6reduceIZN11fp_specific7int_mapESt8functionIFiiEESt6vectorIiSaIiEEEUlS7_iE_S7_S7_EET1_T_T0_S9_
	.section	.text._ZNSt12_Vector_baseIlSaIlEED2Ev,"axG",@progbits,_ZNSt12_Vector_baseIlSaIlEED5Ev,comdat
	.align 2
	.weak	_ZNSt12_Vector_baseIlSaIlEED2Ev
	.type	_ZNSt12_Vector_baseIlSaIlEED2Ev, @function
_ZNSt12_Vector_baseIlSaIlEED2Ev:
.LFB4434:
	.cfi_startproc
	.cfi_personality 0x9b,DW.ref.__gxx_personality_v0
	.cfi_lsda 0x1b,.LLSDA4434
	pushq	%rbp
	.cfi_def_cfa_offset 16
	.cfi_offset 6, -16
	movq	%rsp, %rbp
	.cfi_def_cfa_register 6
	subq	$16, %rsp
	movq	%rdi, -8(%rbp)
	movq	-8(%rbp), %rax
	movq	16(%rax), %rdx
	movq	-8(%rbp), %rax
	movq	(%rax), %rax
	subq	%rax, %rdx
	movq	%rdx, %rax
	sarq	$3, %rax
	movq	%rax, %rdx
	movq	-8(%rbp), %rax
	movq	(%rax), %rcx
	movq	-8(%rbp), %rax
	movq	%rcx, %rsi
	movq	%rax, %rdi
	call	_ZNSt12_Vector_baseIlSaIlEE13_M_deallocateEPlm
	movq	-8(%rbp), %rax
	movq	%rax, %rdi
	call	_ZNSt12_Vector_baseIlSaIlEE12_Vector_implD1Ev
	nop
	leave
	.cfi_def_cfa 7, 8
	ret
	.cfi_endproc
.LFE4434:
	.section	.gcc_except_table
.LLSDA4434:
	.byte	0xff
	.byte	0xff
	.byte	0x1
	.uleb128 .LLSDACSE4434-.LLSDACSB4434
.LLSDACSB4434:
.LLSDACSE4434:
	.section	.text._ZNSt12_Vector_baseIlSaIlEED2Ev,"axG",@progbits,_ZNSt12_Vector_baseIlSaIlEED5Ev,comdat
	.size	_ZNSt12_Vector_baseIlSaIlEED2Ev, .-_ZNSt12_Vector_baseIlSaIlEED2Ev
	.weak	_ZNSt12_Vector_baseIlSaIlEED1Ev
	.set	_ZNSt12_Vector_baseIlSaIlEED1Ev,_ZNSt12_Vector_baseIlSaIlEED2Ev
	.section	.text._ZNSt6vectorIlSaIlEED2Ev,"axG",@progbits,_ZNSt6vectorIlSaIlEED5Ev,comdat
	.align 2
	.weak	_ZNSt6vectorIlSaIlEED2Ev
	.type	_ZNSt6vectorIlSaIlEED2Ev, @function
_ZNSt6vectorIlSaIlEED2Ev:
.LFB4437:
	.cfi_startproc
	.cfi_personality 0x9b,DW.ref.__gxx_personality_v0
	.cfi_lsda 0x1b,.LLSDA4437
	pushq	%rbp
	.cfi_def_cfa_offset 16
	.cfi_offset 6, -16
	movq	%rsp, %rbp
	.cfi_def_cfa_register 6
	subq	$48, %rsp
	movq	%rdi, -40(%rbp)
	movq	-40(%rbp), %rax
	movq	%rax, %rdi
	call	_ZNSt12_Vector_baseIlSaIlEE19_M_get_Tp_allocatorEv
	movq	-40(%rbp), %rdx
	movq	8(%rdx), %rdx
	movq	-40(%rbp), %rcx
	movq	(%rcx), %rcx
	movq	%rcx, -24(%rbp)
	movq	%rdx, -16(%rbp)
	movq	%rax, -8(%rbp)
	movq	-16(%rbp), %rdx
	movq	-24(%rbp), %rax
	movq	%rdx, %rsi
	movq	%rax, %rdi
	call	_ZSt8_DestroyIPlEvT_S1_
	nop
	movq	-40(%rbp), %rax
	movq	%rax, %rdi
	call	_ZNSt12_Vector_baseIlSaIlEED2Ev
	nop
	leave
	.cfi_def_cfa 7, 8
	ret
	.cfi_endproc
.LFE4437:
	.section	.gcc_except_table
.LLSDA4437:
	.byte	0xff
	.byte	0xff
	.byte	0x1
	.uleb128 .LLSDACSE4437-.LLSDACSB4437
.LLSDACSB4437:
.LLSDACSE4437:
	.section	.text._ZNSt6vectorIlSaIlEED2Ev,"axG",@progbits,_ZNSt6vectorIlSaIlEED5Ev,comdat
	.size	_ZNSt6vectorIlSaIlEED2Ev, .-_ZNSt6vectorIlSaIlEED2Ev
	.weak	_ZNSt6vectorIlSaIlEED1Ev
	.set	_ZNSt6vectorIlSaIlEED1Ev,_ZNSt6vectorIlSaIlEED2Ev
	.section	.text._ZNKSt8functionIFllEEclEl,"axG",@progbits,_ZNKSt8functionIFllEEclEl,comdat
	.align 2
	.weak	_ZNKSt8functionIFllEEclEl
	.type	_ZNKSt8functionIFllEEclEl, @function
_ZNKSt8functionIFllEEclEl:
.LFB4439:
	.cfi_startproc
	pushq	%rbp
	.cfi_def_cfa_offset 16
	.cfi_offset 6, -16
	movq	%rsp, %rbp
	.cfi_def_cfa_register 6
	pushq	%rbx
	subq	$24, %rsp
	.cfi_offset 3, -24
	movq	%rdi, -24(%rbp)
	movq	%rsi, -32(%rbp)
	movq	-24(%rbp), %rax
	movq	%rax, %rdi
	call	_ZNKSt14_Function_base8_M_emptyEv
	testb	%al, %al
	je	.L352
	call	_ZSt25__throw_bad_function_callv@PLT
.L352:
	movq	-24(%rbp), %rax
	movq	24(%rax), %rbx
	leaq	-32(%rbp), %rax
	movq	%rax, %rdi
	call	_ZSt7forwardIlEOT_RNSt16remove_referenceIS0_E4typeE
	movq	%rax, %rdx
	movq	-24(%rbp), %rax
	movq	%rdx, %rsi
	movq	%rax, %rdi
	call	*%rbx
	movq	-8(%rbp), %rbx
	leave
	.cfi_def_cfa 7, 8
	ret
	.cfi_endproc
.LFE4439:
	.size	_ZNKSt8functionIFllEEclEl, .-_ZNKSt8functionIFllEEclEl
	.section	.text._ZNSt6vectorIlSaIlEE9push_backEOl,"axG",@progbits,_ZNSt6vectorIlSaIlEE9push_backEOl,comdat
	.align 2
	.weak	_ZNSt6vectorIlSaIlEE9push_backEOl
	.type	_ZNSt6vectorIlSaIlEE9push_backEOl, @function
_ZNSt6vectorIlSaIlEE9push_backEOl:
.LFB4440:
	.cfi_startproc
	pushq	%rbp
	.cfi_def_cfa_offset 16
	.cfi_offset 6, -16
	movq	%rsp, %rbp
	.cfi_def_cfa_register 6
	subq	$16, %rsp
	movq	%rdi, -8(%rbp)
	movq	%rsi, -16(%rbp)
	movq	-16(%rbp), %rax
	movq	%rax, %rdi
	call	_ZSt4moveIRlEONSt16remove_referenceIT_E4typeEOS2_
	movq	%rax, %rdx
	movq	-8(%rbp), %rax
	movq	%rdx, %rsi
	movq	%rax, %rdi
	call	_ZNSt6vectorIlSaIlEE12emplace_backIJlEEERlDpOT_
	nop
	leave
	.cfi_def_cfa 7, 8
	ret
	.cfi_endproc
.LFE4440:
	.size	_ZNSt6vectorIlSaIlEE9push_backEOl, .-_ZNSt6vectorIlSaIlEE9push_backEOl
	.section	.text._ZNSt12_Vector_baseIlSaIlEE12_Vector_implC2EOS2_,"axG",@progbits,_ZNSt12_Vector_baseIlSaIlEE12_Vector_implC5EOS2_,comdat
	.align 2
	.weak	_ZNSt12_Vector_baseIlSaIlEE12_Vector_implC2EOS2_
	.type	_ZNSt12_Vector_baseIlSaIlEE12_Vector_implC2EOS2_, @function
_ZNSt12_Vector_baseIlSaIlEE12_Vector_implC2EOS2_:
.LFB4442:
	.cfi_startproc
	pushq	%rbp
	.cfi_def_cfa_offset 16
	.cfi_offset 6, -16
	movq	%rsp, %rbp
	.cfi_def_cfa_register 6
	pushq	%rbx
	subq	$56, %rsp
	.cfi_offset 3, -24
	movq	%rdi, -56(%rbp)
	movq	%rsi, -64(%rbp)
	movq	-64(%rbp), %rax
	movq	%rax, %rdi
	call	_ZSt4moveIRNSt12_Vector_baseIlSaIlEE12_Vector_implEEONSt16remove_referenceIT_E4typeEOS6_
	movq	-56(%rbp), %rdx
	movq	%rdx, -48(%rbp)
	movq	%rax, -40(%rbp)
	movq	-48(%rbp), %rax
	movq	%rax, -32(%rbp)
	movq	-40(%rbp), %rax
	movq	%rax, -24(%rbp)
	nop
	nop
	movq	-56(%rbp), %rbx
	movq	-64(%rbp), %rax
	movq	%rax, %rdi
	call	_ZSt4moveIRNSt12_Vector_baseIlSaIlEE12_Vector_implEEONSt16remove_referenceIT_E4typeEOS6_
	movq	%rax, %rsi
	movq	%rbx, %rdi
	call	_ZNSt12_Vector_baseIlSaIlEE17_Vector_impl_dataC2EOS2_
	nop
	movq	-8(%rbp), %rbx
	leave
	.cfi_def_cfa 7, 8
	ret
	.cfi_endproc
.LFE4442:
	.size	_ZNSt12_Vector_baseIlSaIlEE12_Vector_implC2EOS2_, .-_ZNSt12_Vector_baseIlSaIlEE12_Vector_implC2EOS2_
	.weak	_ZNSt12_Vector_baseIlSaIlEE12_Vector_implC1EOS2_
	.set	_ZNSt12_Vector_baseIlSaIlEE12_Vector_implC1EOS2_,_ZNSt12_Vector_baseIlSaIlEE12_Vector_implC2EOS2_
	.section	.text._ZNSt8functionIFllEEC2ERKS1_,"axG",@progbits,_ZNSt8functionIFllEEC5ERKS1_,comdat
	.align 2
	.weak	_ZNSt8functionIFllEEC2ERKS1_
	.type	_ZNSt8functionIFllEEC2ERKS1_, @function
_ZNSt8functionIFllEEC2ERKS1_:
.LFB4445:
	.cfi_startproc
	.cfi_personality 0x9b,DW.ref.__gxx_personality_v0
	.cfi_lsda 0x1b,.LLSDA4445
	pushq	%rbp
	.cfi_def_cfa_offset 16
	.cfi_offset 6, -16
	movq	%rsp, %rbp
	.cfi_def_cfa_register 6
	pushq	%rbx
	subq	$24, %rsp
	.cfi_offset 3, -24
	movq	%rdi, -24(%rbp)
	movq	%rsi, -32(%rbp)
	movq	-24(%rbp), %rax
	pxor	%xmm0, %xmm0
	movups	%xmm0, (%rax)
	movq	%xmm0, 16(%rax)
	movq	-24(%rbp), %rax
	movq	%rax, %rdi
	call	_ZNSt14_Function_baseC2Ev
	movq	-24(%rbp), %rax
	movq	$0, 24(%rax)
	movq	-32(%rbp), %rax
	movq	%rax, %rdi
	call	_ZNKSt8functionIFllEEcvbEv
	testb	%al, %al
	je	.L360
	movq	-32(%rbp), %rax
	movq	16(%rax), %r8
	movq	-32(%rbp), %rcx
	movq	-24(%rbp), %rax
	movl	$2, %edx
	movq	%rcx, %rsi
	movq	%rax, %rdi
.LEHB73:
	call	*%r8
.LEHE73:
	movq	-32(%rbp), %rax
	movq	24(%rax), %rdx
	movq	-24(%rbp), %rax
	movq	%rdx, 24(%rax)
	movq	-32(%rbp), %rax
	movq	16(%rax), %rdx
	movq	-24(%rbp), %rax
	movq	%rdx, 16(%rax)
	jmp	.L360
.L359:
	movq	%rax, %rbx
	movq	-24(%rbp), %rax
	movq	%rax, %rdi
	call	_ZNSt14_Function_baseD2Ev
	movq	%rbx, %rax
	movq	%rax, %rdi
.LEHB74:
	call	_Unwind_Resume@PLT
.LEHE74:
.L360:
	nop
	movq	-8(%rbp), %rbx
	leave
	.cfi_def_cfa 7, 8
	ret
	.cfi_endproc
.LFE4445:
	.section	.gcc_except_table
.LLSDA4445:
	.byte	0xff
	.byte	0xff
	.byte	0x1
	.uleb128 .LLSDACSE4445-.LLSDACSB4445
.LLSDACSB4445:
	.uleb128 .LEHB73-.LFB4445
	.uleb128 .LEHE73-.LEHB73
	.uleb128 .L359-.LFB4445
	.uleb128 0
	.uleb128 .LEHB74-.LFB4445
	.uleb128 .LEHE74-.LEHB74
	.uleb128 0
	.uleb128 0
.LLSDACSE4445:
	.section	.text._ZNSt8functionIFllEEC2ERKS1_,"axG",@progbits,_ZNSt8functionIFllEEC5ERKS1_,comdat
	.size	_ZNSt8functionIFllEEC2ERKS1_, .-_ZNSt8functionIFllEEC2ERKS1_
	.weak	_ZNSt8functionIFllEEC1ERKS1_
	.set	_ZNSt8functionIFllEEC1ERKS1_,_ZNSt8functionIFllEEC2ERKS1_
	.section	.text._ZNSt6vectorIlSaIlEEC2ERKS1_,"axG",@progbits,_ZNSt6vectorIlSaIlEEC5ERKS1_,comdat
	.align 2
	.weak	_ZNSt6vectorIlSaIlEEC2ERKS1_
	.type	_ZNSt6vectorIlSaIlEEC2ERKS1_, @function
_ZNSt6vectorIlSaIlEEC2ERKS1_:
.LFB4448:
	.cfi_startproc
	.cfi_personality 0x9b,DW.ref.__gxx_personality_v0
	.cfi_lsda 0x1b,.LLSDA4448
	pushq	%rbp
	.cfi_def_cfa_offset 16
	.cfi_offset 6, -16
	movq	%rsp, %rbp
	.cfi_def_cfa_register 6
	pushq	%r13
	pushq	%r12
	pushq	%rbx
	subq	$88, %rsp
	.cfi_offset 13, -24
	.cfi_offset 12, -32
	.cfi_offset 3, -40
	movq	%rdi, -104(%rbp)
	movq	%rsi, -112(%rbp)
	movq	%fs:40, %rax
	movq	%rax, -40(%rbp)
	xorl	%eax, %eax
	movq	-104(%rbp), %rbx
	movq	-112(%rbp), %rax
	movq	%rax, %rdi
	call	_ZNKSt12_Vector_baseIlSaIlEE19_M_get_Tp_allocatorEv
	movq	%rax, -88(%rbp)
	leaq	-89(%rbp), %rax
	movq	-88(%rbp), %rdx
	movq	%rdx, -80(%rbp)
	movq	%rax, -72(%rbp)
	movq	-80(%rbp), %rax
	movq	%rax, -64(%rbp)
	movq	-72(%rbp), %rax
	movq	%rax, -56(%rbp)
	movq	-64(%rbp), %rax
	movq	%rax, -48(%rbp)
	nop
	nop
	nop
	nop
	movq	-112(%rbp), %rax
	movq	%rax, %rdi
	call	_ZNKSt6vectorIlSaIlEE4sizeEv
	movq	%rax, %rcx
	leaq	-89(%rbp), %rax
	movq	%rax, %rdx
	movq	%rcx, %rsi
	movq	%rbx, %rdi
.LEHB75:
	call	_ZNSt12_Vector_baseIlSaIlEEC2EmRKS0_
.LEHE75:
	nop
	movq	-104(%rbp), %rax
	movq	%rax, %rdi
	call	_ZNSt12_Vector_baseIlSaIlEE19_M_get_Tp_allocatorEv
	movq	%rax, %r13
	movq	-104(%rbp), %rax
	movq	(%rax), %rbx
	movq	-112(%rbp), %rax
	movq	%rax, %rdi
	call	_ZNKSt6vectorIlSaIlEE3endEv
	movq	%rax, %r12
	movq	-112(%rbp), %rax
	movq	%rax, %rdi
	call	_ZNKSt6vectorIlSaIlEE5beginEv
	movq	%r13, %rcx
	movq	%rbx, %rdx
	movq	%r12, %rsi
	movq	%rax, %rdi
.LEHB76:
	call	_ZSt22__uninitialized_copy_aIN9__gnu_cxx17__normal_iteratorIPKlSt6vectorIlSaIlEEEEPllET0_T_SA_S9_RSaIT1_E
.LEHE76:
	movq	-104(%rbp), %rdx
	movq	%rax, 8(%rdx)
	nop
	movq	-40(%rbp), %rax
	subq	%fs:40, %rax
	je	.L366
	jmp	.L368
.L367:
	movq	%rax, %rbx
	movq	-104(%rbp), %rax
	movq	%rax, %rdi
	call	_ZNSt12_Vector_baseIlSaIlEED2Ev
	movq	%rbx, %rax
	movq	-40(%rbp), %rdx
	subq	%fs:40, %rdx
	je	.L365
	call	__stack_chk_fail@PLT
.L365:
	movq	%rax, %rdi
.LEHB77:
	call	_Unwind_Resume@PLT
.LEHE77:
.L368:
	call	__stack_chk_fail@PLT
.L366:
	addq	$88, %rsp
	popq	%rbx
	popq	%r12
	popq	%r13
	popq	%rbp
	.cfi_def_cfa 7, 8
	ret
	.cfi_endproc
.LFE4448:
	.section	.gcc_except_table
.LLSDA4448:
	.byte	0xff
	.byte	0xff
	.byte	0x1
	.uleb128 .LLSDACSE4448-.LLSDACSB4448
.LLSDACSB4448:
	.uleb128 .LEHB75-.LFB4448
	.uleb128 .LEHE75-.LEHB75
	.uleb128 0
	.uleb128 0
	.uleb128 .LEHB76-.LFB4448
	.uleb128 .LEHE76-.LEHB76
	.uleb128 .L367-.LFB4448
	.uleb128 0
	.uleb128 .LEHB77-.LFB4448
	.uleb128 .LEHE77-.LEHB77
	.uleb128 0
	.uleb128 0
.LLSDACSE4448:
	.section	.text._ZNSt6vectorIlSaIlEEC2ERKS1_,"axG",@progbits,_ZNSt6vectorIlSaIlEEC5ERKS1_,comdat
	.size	_ZNSt6vectorIlSaIlEEC2ERKS1_, .-_ZNSt6vectorIlSaIlEEC2ERKS1_
	.weak	_ZNSt6vectorIlSaIlEEC1ERKS1_
	.set	_ZNSt6vectorIlSaIlEEC1ERKS1_,_ZNSt6vectorIlSaIlEEC2ERKS1_
	.section	.text._ZNKSt6vectorIlSaIlEE4sizeEv,"axG",@progbits,_ZNKSt6vectorIlSaIlEE4sizeEv,comdat
	.align 2
	.weak	_ZNKSt6vectorIlSaIlEE4sizeEv
	.type	_ZNKSt6vectorIlSaIlEE4sizeEv, @function
_ZNKSt6vectorIlSaIlEE4sizeEv:
.LFB4451:
	.cfi_startproc
	pushq	%rbp
	.cfi_def_cfa_offset 16
	.cfi_offset 6, -16
	movq	%rsp, %rbp
	.cfi_def_cfa_register 6
	movq	%rdi, -8(%rbp)
	movq	-8(%rbp), %rax
	movq	8(%rax), %rdx
	movq	-8(%rbp), %rax
	movq	(%rax), %rax
	subq	%rax, %rdx
	movq	%rdx, %rax
	sarq	$3, %rax
	popq	%rbp
	.cfi_def_cfa 7, 8
	ret
	.cfi_endproc
.LFE4451:
	.size	_ZNKSt6vectorIlSaIlEE4sizeEv, .-_ZNKSt6vectorIlSaIlEE4sizeEv
	.section	.text._ZNSt6vectorIlSaIlEE5beginEv,"axG",@progbits,_ZNSt6vectorIlSaIlEE5beginEv,comdat
	.align 2
	.weak	_ZNSt6vectorIlSaIlEE5beginEv
	.type	_ZNSt6vectorIlSaIlEE5beginEv, @function
_ZNSt6vectorIlSaIlEE5beginEv:
.LFB4452:
	.cfi_startproc
	pushq	%rbp
	.cfi_def_cfa_offset 16
	.cfi_offset 6, -16
	movq	%rsp, %rbp
	.cfi_def_cfa_register 6
	subq	$32, %rsp
	movq	%rdi, -24(%rbp)
	movq	%fs:40, %rax
	movq	%rax, -8(%rbp)
	xorl	%eax, %eax
	movq	-24(%rbp), %rdx
	leaq	-16(%rbp), %rax
	movq	%rdx, %rsi
	movq	%rax, %rdi
	call	_ZN9__gnu_cxx17__normal_iteratorIPlSt6vectorIlSaIlEEEC1ERKS1_
	movq	-16(%rbp), %rax
	movq	-8(%rbp), %rdx
	subq	%fs:40, %rdx
	je	.L373
	call	__stack_chk_fail@PLT
.L373:
	leave
	.cfi_def_cfa 7, 8
	ret
	.cfi_endproc
.LFE4452:
	.size	_ZNSt6vectorIlSaIlEE5beginEv, .-_ZNSt6vectorIlSaIlEE5beginEv
	.section	.text._ZN9__gnu_cxx17__normal_iteratorIPlSt6vectorIlSaIlEEEC2ERKS1_,"axG",@progbits,_ZN9__gnu_cxx17__normal_iteratorIPlSt6vectorIlSaIlEEEC5ERKS1_,comdat
	.align 2
	.weak	_ZN9__gnu_cxx17__normal_iteratorIPlSt6vectorIlSaIlEEEC2ERKS1_
	.type	_ZN9__gnu_cxx17__normal_iteratorIPlSt6vectorIlSaIlEEEC2ERKS1_, @function
_ZN9__gnu_cxx17__normal_iteratorIPlSt6vectorIlSaIlEEEC2ERKS1_:
.LFB4454:
	.cfi_startproc
	pushq	%rbp
	.cfi_def_cfa_offset 16
	.cfi_offset 6, -16
	movq	%rsp, %rbp
	.cfi_def_cfa_register 6
	movq	%rdi, -8(%rbp)
	movq	%rsi, -16(%rbp)
	movq	-16(%rbp), %rax
	movq	(%rax), %rdx
	movq	-8(%rbp), %rax
	movq	%rdx, (%rax)
	nop
	popq	%rbp
	.cfi_def_cfa 7, 8
	ret
	.cfi_endproc
.LFE4454:
	.size	_ZN9__gnu_cxx17__normal_iteratorIPlSt6vectorIlSaIlEEEC2ERKS1_, .-_ZN9__gnu_cxx17__normal_iteratorIPlSt6vectorIlSaIlEEEC2ERKS1_
	.weak	_ZN9__gnu_cxx17__normal_iteratorIPlSt6vectorIlSaIlEEEC1ERKS1_
	.set	_ZN9__gnu_cxx17__normal_iteratorIPlSt6vectorIlSaIlEEEC1ERKS1_,_ZN9__gnu_cxx17__normal_iteratorIPlSt6vectorIlSaIlEEEC2ERKS1_
	.text
	.align 2
	.type	_ZZN11fp_specific8long_mapESt8functionIFllEESt6vectorIlSaIlEEENUlS5_lE_C2ERKS6_, @function
_ZZN11fp_specific8long_mapESt8functionIFllEESt6vectorIlSaIlEEENUlS5_lE_C2ERKS6_:
.LFB4457:
	.cfi_startproc
	pushq	%rbp
	.cfi_def_cfa_offset 16
	.cfi_offset 6, -16
	movq	%rsp, %rbp
	.cfi_def_cfa_register 6
	subq	$16, %rsp
	movq	%rdi, -8(%rbp)
	movq	%rsi, -16(%rbp)
	movq	-8(%rbp), %rax
	movq	-16(%rbp), %rdx
	movq	%rdx, %rsi
	movq	%rax, %rdi
	call	_ZNSt8functionIFllEEC1ERKS1_
	nop
	leave
	.cfi_def_cfa 7, 8
	ret
	.cfi_endproc
.LFE4457:
	.size	_ZZN11fp_specific8long_mapESt8functionIFllEESt6vectorIlSaIlEEENUlS5_lE_C2ERKS6_, .-_ZZN11fp_specific8long_mapESt8functionIFllEESt6vectorIlSaIlEEENUlS5_lE_C2ERKS6_
	.set	_ZZN11fp_specific8long_mapESt8functionIFllEESt6vectorIlSaIlEEENUlS5_lE_C1ERKS6_,_ZZN11fp_specific8long_mapESt8functionIFllEESt6vectorIlSaIlEEENUlS5_lE_C2ERKS6_
	.type	_ZN2fp6reduceIZN11fp_specific8long_mapESt8functionIFllEESt6vectorIlSaIlEEEUlS7_lE_S7_S7_EET1_T_T0_S9_, @function
_ZN2fp6reduceIZN11fp_specific8long_mapESt8functionIFllEESt6vectorIlSaIlEEEUlS7_lE_S7_S7_EET1_T_T0_S9_:
.LFB4450:
	.cfi_startproc
	.cfi_personality 0x9b,DW.ref.__gxx_personality_v0
	.cfi_lsda 0x1b,.LLSDA4450
	pushq	%rbp
	.cfi_def_cfa_offset 16
	.cfi_offset 6, -16
	movq	%rsp, %rbp
	.cfi_def_cfa_register 6
	pushq	%rbx
	subq	$232, %rsp
	.cfi_offset 3, -24
	movq	%rdi, -216(%rbp)
	movq	%rsi, -224(%rbp)
	movq	%rdx, -232(%rbp)
	movq	%rcx, -240(%rbp)
	movq	%fs:40, %rax
	movq	%rax, -24(%rbp)
	xorl	%eax, %eax
	movq	-232(%rbp), %rax
	movq	%rax, %rdi
	call	_ZNKSt6vectorIlSaIlEE4sizeEv
	testq	%rax, %rax
	sete	%al
	testb	%al, %al
	je	.L377
	movq	-240(%rbp), %rdx
	movq	-216(%rbp), %rax
	movq	%rdx, %rsi
	movq	%rax, %rdi
	call	_ZNSt6vectorIlSaIlEEC1EOS1_
	jmp	.L376
.L377:
	leaq	-128(%rbp), %rax
	movq	%rax, -200(%rbp)
	nop
	nop
	movq	-232(%rbp), %rax
	movq	%rax, %rdi
	call	_ZNSt6vectorIlSaIlEE3endEv
	movq	%rax, %rbx
	movq	-232(%rbp), %rax
	movq	%rax, %rdi
	call	_ZNSt6vectorIlSaIlEE5beginEv
	movq	%rax, -96(%rbp)
	leaq	-96(%rbp), %rax
	movl	$1, %esi
	movq	%rax, %rdi
	call	_ZNK9__gnu_cxx17__normal_iteratorIPlSt6vectorIlSaIlEEEplEl
	movq	%rax, %rsi
	leaq	-128(%rbp), %rdx
	leaq	-192(%rbp), %rax
	movq	%rdx, %rcx
	movq	%rbx, %rdx
	movq	%rax, %rdi
.LEHB78:
	call	_ZNSt6vectorIlSaIlEEC1IN9__gnu_cxx17__normal_iteratorIPlS1_EEvEET_S7_RKS0_
.LEHE78:
	nop
	movq	-232(%rbp), %rax
	movl	$0, %esi
	movq	%rax, %rdi
	call	_ZNSt6vectorIlSaIlEEixEm
	movq	(%rax), %rbx
	movq	-240(%rbp), %rdx
	leaq	-160(%rbp), %rax
	movq	%rdx, %rsi
	movq	%rax, %rdi
.LEHB79:
	call	_ZNSt6vectorIlSaIlEEC1ERKS1_
.LEHE79:
	leaq	-128(%rbp), %rax
	leaq	-160(%rbp), %rdx
	movq	-224(%rbp), %rsi
	movq	%rbx, %rcx
	movq	%rax, %rdi
.LEHB80:
	call	_ZZN11fp_specific8long_mapESt8functionIFllEESt6vectorIlSaIlEEENKUlS5_lE_clES5_l
.LEHE80:
	leaq	-192(%rbp), %rdx
	leaq	-96(%rbp), %rax
	movq	%rdx, %rsi
	movq	%rax, %rdi
.LEHB81:
	call	_ZNSt6vectorIlSaIlEEC1ERKS1_
.LEHE81:
	movq	-224(%rbp), %rdx
	leaq	-64(%rbp), %rax
	movq	%rdx, %rsi
	movq	%rax, %rdi
.LEHB82:
	call	_ZZN11fp_specific8long_mapESt8functionIFllEESt6vectorIlSaIlEEENUlS5_lE_C1ERKS6_
.LEHE82:
	movq	-216(%rbp), %rax
	leaq	-128(%rbp), %rcx
	leaq	-96(%rbp), %rdx
	leaq	-64(%rbp), %rsi
	movq	%rax, %rdi
.LEHB83:
	call	_ZN2fp6reduceIZN11fp_specific8long_mapESt8functionIFllEESt6vectorIlSaIlEEEUlS7_lE_S7_S7_EET1_T_T0_S9_
.LEHE83:
	leaq	-64(%rbp), %rax
	movq	%rax, %rdi
	call	_ZZN11fp_specific8long_mapESt8functionIFllEESt6vectorIlSaIlEEENUlS5_lE_D1Ev
	leaq	-96(%rbp), %rax
	movq	%rax, %rdi
	call	_ZNSt6vectorIlSaIlEED1Ev
	leaq	-128(%rbp), %rax
	movq	%rax, %rdi
	call	_ZNSt6vectorIlSaIlEED1Ev
	leaq	-160(%rbp), %rax
	movq	%rax, %rdi
	call	_ZNSt6vectorIlSaIlEED1Ev
	leaq	-192(%rbp), %rax
	movq	%rax, %rdi
	call	_ZNSt6vectorIlSaIlEED1Ev
	jmp	.L376
.L389:
	nop
	movq	-24(%rbp), %rdx
	subq	%fs:40, %rdx
	je	.L381
	call	__stack_chk_fail@PLT
.L381:
	movq	%rax, %rdi
.LEHB84:
	call	_Unwind_Resume@PLT
.L394:
	movq	%rax, %rbx
	leaq	-64(%rbp), %rax
	movq	%rax, %rdi
	call	_ZZN11fp_specific8long_mapESt8functionIFllEESt6vectorIlSaIlEEENUlS5_lE_D1Ev
	jmp	.L383
.L393:
	movq	%rax, %rbx
.L383:
	leaq	-96(%rbp), %rax
	movq	%rax, %rdi
	call	_ZNSt6vectorIlSaIlEED1Ev
	jmp	.L384
.L392:
	movq	%rax, %rbx
.L384:
	leaq	-128(%rbp), %rax
	movq	%rax, %rdi
	call	_ZNSt6vectorIlSaIlEED1Ev
	jmp	.L385
.L391:
	movq	%rax, %rbx
.L385:
	leaq	-160(%rbp), %rax
	movq	%rax, %rdi
	call	_ZNSt6vectorIlSaIlEED1Ev
	jmp	.L386
.L390:
	movq	%rax, %rbx
.L386:
	leaq	-192(%rbp), %rax
	movq	%rax, %rdi
	call	_ZNSt6vectorIlSaIlEED1Ev
	movq	%rbx, %rax
	movq	-24(%rbp), %rdx
	subq	%fs:40, %rdx
	je	.L387
	call	__stack_chk_fail@PLT
.L387:
	movq	%rax, %rdi
	call	_Unwind_Resume@PLT
.LEHE84:
.L376:
	movq	-24(%rbp), %rax
	subq	%fs:40, %rax
	je	.L388
	call	__stack_chk_fail@PLT
.L388:
	movq	-216(%rbp), %rax
	movq	-8(%rbp), %rbx
	leave
	.cfi_def_cfa 7, 8
	ret
	.cfi_endproc
.LFE4450:
	.section	.gcc_except_table
.LLSDA4450:
	.byte	0xff
	.byte	0xff
	.byte	0x1
	.uleb128 .LLSDACSE4450-.LLSDACSB4450
.LLSDACSB4450:
	.uleb128 .LEHB78-.LFB4450
	.uleb128 .LEHE78-.LEHB78
	.uleb128 .L389-.LFB4450
	.uleb128 0
	.uleb128 .LEHB79-.LFB4450
	.uleb128 .LEHE79-.LEHB79
	.uleb128 .L390-.LFB4450
	.uleb128 0
	.uleb128 .LEHB80-.LFB4450
	.uleb128 .LEHE80-.LEHB80
	.uleb128 .L391-.LFB4450
	.uleb128 0
	.uleb128 .LEHB81-.LFB4450
	.uleb128 .LEHE81-.LEHB81
	.uleb128 .L392-.LFB4450
	.uleb128 0
	.uleb128 .LEHB82-.LFB4450
	.uleb128 .LEHE82-.LEHB82
	.uleb128 .L393-.LFB4450
	.uleb128 0
	.uleb128 .LEHB83-.LFB4450
	.uleb128 .LEHE83-.LEHB83
	.uleb128 .L394-.LFB4450
	.uleb128 0
	.uleb128 .LEHB84-.LFB4450
	.uleb128 .LEHE84-.LEHB84
	.uleb128 0
	.uleb128 0
.LLSDACSE4450:
	.text
	.size	_ZN2fp6reduceIZN11fp_specific8long_mapESt8functionIFllEESt6vectorIlSaIlEEEUlS7_lE_S7_S7_EET1_T_T0_S9_, .-_ZN2fp6reduceIZN11fp_specific8long_mapESt8functionIFllEESt6vectorIlSaIlEEEUlS7_lE_S7_S7_EET1_T_T0_S9_
	.section	.text._ZNSt12_Vector_baseIdSaIdEED2Ev,"axG",@progbits,_ZNSt12_Vector_baseIdSaIdEED5Ev,comdat
	.align 2
	.weak	_ZNSt12_Vector_baseIdSaIdEED2Ev
	.type	_ZNSt12_Vector_baseIdSaIdEED2Ev, @function
_ZNSt12_Vector_baseIdSaIdEED2Ev:
.LFB4463:
	.cfi_startproc
	.cfi_personality 0x9b,DW.ref.__gxx_personality_v0
	.cfi_lsda 0x1b,.LLSDA4463
	pushq	%rbp
	.cfi_def_cfa_offset 16
	.cfi_offset 6, -16
	movq	%rsp, %rbp
	.cfi_def_cfa_register 6
	subq	$16, %rsp
	movq	%rdi, -8(%rbp)
	movq	-8(%rbp), %rax
	movq	16(%rax), %rdx
	movq	-8(%rbp), %rax
	movq	(%rax), %rax
	subq	%rax, %rdx
	movq	%rdx, %rax
	sarq	$3, %rax
	movq	%rax, %rdx
	movq	-8(%rbp), %rax
	movq	(%rax), %rcx
	movq	-8(%rbp), %rax
	movq	%rcx, %rsi
	movq	%rax, %rdi
	call	_ZNSt12_Vector_baseIdSaIdEE13_M_deallocateEPdm
	movq	-8(%rbp), %rax
	movq	%rax, %rdi
	call	_ZNSt12_Vector_baseIdSaIdEE12_Vector_implD1Ev
	nop
	leave
	.cfi_def_cfa 7, 8
	ret
	.cfi_endproc
.LFE4463:
	.section	.gcc_except_table
.LLSDA4463:
	.byte	0xff
	.byte	0xff
	.byte	0x1
	.uleb128 .LLSDACSE4463-.LLSDACSB4463
.LLSDACSB4463:
.LLSDACSE4463:
	.section	.text._ZNSt12_Vector_baseIdSaIdEED2Ev,"axG",@progbits,_ZNSt12_Vector_baseIdSaIdEED5Ev,comdat
	.size	_ZNSt12_Vector_baseIdSaIdEED2Ev, .-_ZNSt12_Vector_baseIdSaIdEED2Ev
	.weak	_ZNSt12_Vector_baseIdSaIdEED1Ev
	.set	_ZNSt12_Vector_baseIdSaIdEED1Ev,_ZNSt12_Vector_baseIdSaIdEED2Ev
	.section	.text._ZNSt6vectorIdSaIdEED2Ev,"axG",@progbits,_ZNSt6vectorIdSaIdEED5Ev,comdat
	.align 2
	.weak	_ZNSt6vectorIdSaIdEED2Ev
	.type	_ZNSt6vectorIdSaIdEED2Ev, @function
_ZNSt6vectorIdSaIdEED2Ev:
.LFB4466:
	.cfi_startproc
	.cfi_personality 0x9b,DW.ref.__gxx_personality_v0
	.cfi_lsda 0x1b,.LLSDA4466
	pushq	%rbp
	.cfi_def_cfa_offset 16
	.cfi_offset 6, -16
	movq	%rsp, %rbp
	.cfi_def_cfa_register 6
	subq	$48, %rsp
	movq	%rdi, -40(%rbp)
	movq	-40(%rbp), %rax
	movq	%rax, %rdi
	call	_ZNSt12_Vector_baseIdSaIdEE19_M_get_Tp_allocatorEv
	movq	-40(%rbp), %rdx
	movq	8(%rdx), %rdx
	movq	-40(%rbp), %rcx
	movq	(%rcx), %rcx
	movq	%rcx, -24(%rbp)
	movq	%rdx, -16(%rbp)
	movq	%rax, -8(%rbp)
	movq	-16(%rbp), %rdx
	movq	-24(%rbp), %rax
	movq	%rdx, %rsi
	movq	%rax, %rdi
	call	_ZSt8_DestroyIPdEvT_S1_
	nop
	movq	-40(%rbp), %rax
	movq	%rax, %rdi
	call	_ZNSt12_Vector_baseIdSaIdEED2Ev
	nop
	leave
	.cfi_def_cfa 7, 8
	ret
	.cfi_endproc
.LFE4466:
	.section	.gcc_except_table
.LLSDA4466:
	.byte	0xff
	.byte	0xff
	.byte	0x1
	.uleb128 .LLSDACSE4466-.LLSDACSB4466
.LLSDACSB4466:
.LLSDACSE4466:
	.section	.text._ZNSt6vectorIdSaIdEED2Ev,"axG",@progbits,_ZNSt6vectorIdSaIdEED5Ev,comdat
	.size	_ZNSt6vectorIdSaIdEED2Ev, .-_ZNSt6vectorIdSaIdEED2Ev
	.weak	_ZNSt6vectorIdSaIdEED1Ev
	.set	_ZNSt6vectorIdSaIdEED1Ev,_ZNSt6vectorIdSaIdEED2Ev
	.section	.text._ZNKSt8functionIFddEEclEd,"axG",@progbits,_ZNKSt8functionIFddEEclEd,comdat
	.align 2
	.weak	_ZNKSt8functionIFddEEclEd
	.type	_ZNKSt8functionIFddEEclEd, @function
_ZNKSt8functionIFddEEclEd:
.LFB4468:
	.cfi_startproc
	pushq	%rbp
	.cfi_def_cfa_offset 16
	.cfi_offset 6, -16
	movq	%rsp, %rbp
	.cfi_def_cfa_register 6
	pushq	%rbx
	subq	$24, %rsp
	.cfi_offset 3, -24
	movq	%rdi, -24(%rbp)
	movsd	%xmm0, -32(%rbp)
	movq	-24(%rbp), %rax
	movq	%rax, %rdi
	call	_ZNKSt14_Function_base8_M_emptyEv
	testb	%al, %al
	je	.L398
	call	_ZSt25__throw_bad_function_callv@PLT
.L398:
	movq	-24(%rbp), %rax
	movq	24(%rax), %rbx
	leaq	-32(%rbp), %rax
	movq	%rax, %rdi
	call	_ZSt7forwardIdEOT_RNSt16remove_referenceIS0_E4typeE
	movq	%rax, %rdx
	movq	-24(%rbp), %rax
	movq	%rdx, %rsi
	movq	%rax, %rdi
	call	*%rbx
	movq	%xmm0, %rax
	movq	%rax, %xmm0
	movq	-8(%rbp), %rbx
	leave
	.cfi_def_cfa 7, 8
	ret
	.cfi_endproc
.LFE4468:
	.size	_ZNKSt8functionIFddEEclEd, .-_ZNKSt8functionIFddEEclEd
	.section	.text._ZNSt6vectorIdSaIdEE9push_backEOd,"axG",@progbits,_ZNSt6vectorIdSaIdEE9push_backEOd,comdat
	.align 2
	.weak	_ZNSt6vectorIdSaIdEE9push_backEOd
	.type	_ZNSt6vectorIdSaIdEE9push_backEOd, @function
_ZNSt6vectorIdSaIdEE9push_backEOd:
.LFB4469:
	.cfi_startproc
	pushq	%rbp
	.cfi_def_cfa_offset 16
	.cfi_offset 6, -16
	movq	%rsp, %rbp
	.cfi_def_cfa_register 6
	subq	$16, %rsp
	movq	%rdi, -8(%rbp)
	movq	%rsi, -16(%rbp)
	movq	-16(%rbp), %rax
	movq	%rax, %rdi
	call	_ZSt4moveIRdEONSt16remove_referenceIT_E4typeEOS2_
	movq	%rax, %rdx
	movq	-8(%rbp), %rax
	movq	%rdx, %rsi
	movq	%rax, %rdi
	call	_ZNSt6vectorIdSaIdEE12emplace_backIJdEEERdDpOT_
	nop
	leave
	.cfi_def_cfa 7, 8
	ret
	.cfi_endproc
.LFE4469:
	.size	_ZNSt6vectorIdSaIdEE9push_backEOd, .-_ZNSt6vectorIdSaIdEE9push_backEOd
	.section	.text._ZNSt12_Vector_baseIdSaIdEE12_Vector_implC2EOS2_,"axG",@progbits,_ZNSt12_Vector_baseIdSaIdEE12_Vector_implC5EOS2_,comdat
	.align 2
	.weak	_ZNSt12_Vector_baseIdSaIdEE12_Vector_implC2EOS2_
	.type	_ZNSt12_Vector_baseIdSaIdEE12_Vector_implC2EOS2_, @function
_ZNSt12_Vector_baseIdSaIdEE12_Vector_implC2EOS2_:
.LFB4471:
	.cfi_startproc
	pushq	%rbp
	.cfi_def_cfa_offset 16
	.cfi_offset 6, -16
	movq	%rsp, %rbp
	.cfi_def_cfa_register 6
	pushq	%rbx
	subq	$56, %rsp
	.cfi_offset 3, -24
	movq	%rdi, -56(%rbp)
	movq	%rsi, -64(%rbp)
	movq	-64(%rbp), %rax
	movq	%rax, %rdi
	call	_ZSt4moveIRNSt12_Vector_baseIdSaIdEE12_Vector_implEEONSt16remove_referenceIT_E4typeEOS6_
	movq	-56(%rbp), %rdx
	movq	%rdx, -48(%rbp)
	movq	%rax, -40(%rbp)
	movq	-48(%rbp), %rax
	movq	%rax, -32(%rbp)
	movq	-40(%rbp), %rax
	movq	%rax, -24(%rbp)
	nop
	nop
	movq	-56(%rbp), %rbx
	movq	-64(%rbp), %rax
	movq	%rax, %rdi
	call	_ZSt4moveIRNSt12_Vector_baseIdSaIdEE12_Vector_implEEONSt16remove_referenceIT_E4typeEOS6_
	movq	%rax, %rsi
	movq	%rbx, %rdi
	call	_ZNSt12_Vector_baseIdSaIdEE17_Vector_impl_dataC2EOS2_
	nop
	movq	-8(%rbp), %rbx
	leave
	.cfi_def_cfa 7, 8
	ret
	.cfi_endproc
.LFE4471:
	.size	_ZNSt12_Vector_baseIdSaIdEE12_Vector_implC2EOS2_, .-_ZNSt12_Vector_baseIdSaIdEE12_Vector_implC2EOS2_
	.weak	_ZNSt12_Vector_baseIdSaIdEE12_Vector_implC1EOS2_
	.set	_ZNSt12_Vector_baseIdSaIdEE12_Vector_implC1EOS2_,_ZNSt12_Vector_baseIdSaIdEE12_Vector_implC2EOS2_
	.section	.text._ZNSt8functionIFddEEC2ERKS1_,"axG",@progbits,_ZNSt8functionIFddEEC5ERKS1_,comdat
	.align 2
	.weak	_ZNSt8functionIFddEEC2ERKS1_
	.type	_ZNSt8functionIFddEEC2ERKS1_, @function
_ZNSt8functionIFddEEC2ERKS1_:
.LFB4474:
	.cfi_startproc
	.cfi_personality 0x9b,DW.ref.__gxx_personality_v0
	.cfi_lsda 0x1b,.LLSDA4474
	pushq	%rbp
	.cfi_def_cfa_offset 16
	.cfi_offset 6, -16
	movq	%rsp, %rbp
	.cfi_def_cfa_register 6
	pushq	%rbx
	subq	$24, %rsp
	.cfi_offset 3, -24
	movq	%rdi, -24(%rbp)
	movq	%rsi, -32(%rbp)
	movq	-24(%rbp), %rax
	pxor	%xmm0, %xmm0
	movups	%xmm0, (%rax)
	movq	%xmm0, 16(%rax)
	movq	-24(%rbp), %rax
	movq	%rax, %rdi
	call	_ZNSt14_Function_baseC2Ev
	movq	-24(%rbp), %rax
	movq	$0, 24(%rax)
	movq	-32(%rbp), %rax
	movq	%rax, %rdi
	call	_ZNKSt8functionIFddEEcvbEv
	testb	%al, %al
	je	.L406
	movq	-32(%rbp), %rax
	movq	16(%rax), %r8
	movq	-32(%rbp), %rcx
	movq	-24(%rbp), %rax
	movl	$2, %edx
	movq	%rcx, %rsi
	movq	%rax, %rdi
.LEHB85:
	call	*%r8
.LEHE85:
	movq	-32(%rbp), %rax
	movq	24(%rax), %rdx
	movq	-24(%rbp), %rax
	movq	%rdx, 24(%rax)
	movq	-32(%rbp), %rax
	movq	16(%rax), %rdx
	movq	-24(%rbp), %rax
	movq	%rdx, 16(%rax)
	jmp	.L406
.L405:
	movq	%rax, %rbx
	movq	-24(%rbp), %rax
	movq	%rax, %rdi
	call	_ZNSt14_Function_baseD2Ev
	movq	%rbx, %rax
	movq	%rax, %rdi
.LEHB86:
	call	_Unwind_Resume@PLT
.LEHE86:
.L406:
	nop
	movq	-8(%rbp), %rbx
	leave
	.cfi_def_cfa 7, 8
	ret
	.cfi_endproc
.LFE4474:
	.section	.gcc_except_table
.LLSDA4474:
	.byte	0xff
	.byte	0xff
	.byte	0x1
	.uleb128 .LLSDACSE4474-.LLSDACSB4474
.LLSDACSB4474:
	.uleb128 .LEHB85-.LFB4474
	.uleb128 .LEHE85-.LEHB85
	.uleb128 .L405-.LFB4474
	.uleb128 0
	.uleb128 .LEHB86-.LFB4474
	.uleb128 .LEHE86-.LEHB86
	.uleb128 0
	.uleb128 0
.LLSDACSE4474:
	.section	.text._ZNSt8functionIFddEEC2ERKS1_,"axG",@progbits,_ZNSt8functionIFddEEC5ERKS1_,comdat
	.size	_ZNSt8functionIFddEEC2ERKS1_, .-_ZNSt8functionIFddEEC2ERKS1_
	.weak	_ZNSt8functionIFddEEC1ERKS1_
	.set	_ZNSt8functionIFddEEC1ERKS1_,_ZNSt8functionIFddEEC2ERKS1_
	.section	.text._ZNSt6vectorIdSaIdEEC2ERKS1_,"axG",@progbits,_ZNSt6vectorIdSaIdEEC5ERKS1_,comdat
	.align 2
	.weak	_ZNSt6vectorIdSaIdEEC2ERKS1_
	.type	_ZNSt6vectorIdSaIdEEC2ERKS1_, @function
_ZNSt6vectorIdSaIdEEC2ERKS1_:
.LFB4477:
	.cfi_startproc
	.cfi_personality 0x9b,DW.ref.__gxx_personality_v0
	.cfi_lsda 0x1b,.LLSDA4477
	pushq	%rbp
	.cfi_def_cfa_offset 16
	.cfi_offset 6, -16
	movq	%rsp, %rbp
	.cfi_def_cfa_register 6
	pushq	%r13
	pushq	%r12
	pushq	%rbx
	subq	$88, %rsp
	.cfi_offset 13, -24
	.cfi_offset 12, -32
	.cfi_offset 3, -40
	movq	%rdi, -104(%rbp)
	movq	%rsi, -112(%rbp)
	movq	%fs:40, %rax
	movq	%rax, -40(%rbp)
	xorl	%eax, %eax
	movq	-104(%rbp), %rbx
	movq	-112(%rbp), %rax
	movq	%rax, %rdi
	call	_ZNKSt12_Vector_baseIdSaIdEE19_M_get_Tp_allocatorEv
	movq	%rax, -88(%rbp)
	leaq	-89(%rbp), %rax
	movq	-88(%rbp), %rdx
	movq	%rdx, -80(%rbp)
	movq	%rax, -72(%rbp)
	movq	-80(%rbp), %rax
	movq	%rax, -64(%rbp)
	movq	-72(%rbp), %rax
	movq	%rax, -56(%rbp)
	movq	-64(%rbp), %rax
	movq	%rax, -48(%rbp)
	nop
	nop
	nop
	nop
	movq	-112(%rbp), %rax
	movq	%rax, %rdi
	call	_ZNKSt6vectorIdSaIdEE4sizeEv
	movq	%rax, %rcx
	leaq	-89(%rbp), %rax
	movq	%rax, %rdx
	movq	%rcx, %rsi
	movq	%rbx, %rdi
.LEHB87:
	call	_ZNSt12_Vector_baseIdSaIdEEC2EmRKS0_
.LEHE87:
	nop
	movq	-104(%rbp), %rax
	movq	%rax, %rdi
	call	_ZNSt12_Vector_baseIdSaIdEE19_M_get_Tp_allocatorEv
	movq	%rax, %r13
	movq	-104(%rbp), %rax
	movq	(%rax), %rbx
	movq	-112(%rbp), %rax
	movq	%rax, %rdi
	call	_ZNKSt6vectorIdSaIdEE3endEv
	movq	%rax, %r12
	movq	-112(%rbp), %rax
	movq	%rax, %rdi
	call	_ZNKSt6vectorIdSaIdEE5beginEv
	movq	%r13, %rcx
	movq	%rbx, %rdx
	movq	%r12, %rsi
	movq	%rax, %rdi
.LEHB88:
	call	_ZSt22__uninitialized_copy_aIN9__gnu_cxx17__normal_iteratorIPKdSt6vectorIdSaIdEEEEPddET0_T_SA_S9_RSaIT1_E
.LEHE88:
	movq	-104(%rbp), %rdx
	movq	%rax, 8(%rdx)
	nop
	movq	-40(%rbp), %rax
	subq	%fs:40, %rax
	je	.L412
	jmp	.L414
.L413:
	movq	%rax, %rbx
	movq	-104(%rbp), %rax
	movq	%rax, %rdi
	call	_ZNSt12_Vector_baseIdSaIdEED2Ev
	movq	%rbx, %rax
	movq	-40(%rbp), %rdx
	subq	%fs:40, %rdx
	je	.L411
	call	__stack_chk_fail@PLT
.L411:
	movq	%rax, %rdi
.LEHB89:
	call	_Unwind_Resume@PLT
.LEHE89:
.L414:
	call	__stack_chk_fail@PLT
.L412:
	addq	$88, %rsp
	popq	%rbx
	popq	%r12
	popq	%r13
	popq	%rbp
	.cfi_def_cfa 7, 8
	ret
	.cfi_endproc
.LFE4477:
	.section	.gcc_except_table
.LLSDA4477:
	.byte	0xff
	.byte	0xff
	.byte	0x1
	.uleb128 .LLSDACSE4477-.LLSDACSB4477
.LLSDACSB4477:
	.uleb128 .LEHB87-.LFB4477
	.uleb128 .LEHE87-.LEHB87
	.uleb128 0
	.uleb128 0
	.uleb128 .LEHB88-.LFB4477
	.uleb128 .LEHE88-.LEHB88
	.uleb128 .L413-.LFB4477
	.uleb128 0
	.uleb128 .LEHB89-.LFB4477
	.uleb128 .LEHE89-.LEHB89
	.uleb128 0
	.uleb128 0
.LLSDACSE4477:
	.section	.text._ZNSt6vectorIdSaIdEEC2ERKS1_,"axG",@progbits,_ZNSt6vectorIdSaIdEEC5ERKS1_,comdat
	.size	_ZNSt6vectorIdSaIdEEC2ERKS1_, .-_ZNSt6vectorIdSaIdEEC2ERKS1_
	.weak	_ZNSt6vectorIdSaIdEEC1ERKS1_
	.set	_ZNSt6vectorIdSaIdEEC1ERKS1_,_ZNSt6vectorIdSaIdEEC2ERKS1_
	.section	.text._ZNKSt6vectorIdSaIdEE4sizeEv,"axG",@progbits,_ZNKSt6vectorIdSaIdEE4sizeEv,comdat
	.align 2
	.weak	_ZNKSt6vectorIdSaIdEE4sizeEv
	.type	_ZNKSt6vectorIdSaIdEE4sizeEv, @function
_ZNKSt6vectorIdSaIdEE4sizeEv:
.LFB4480:
	.cfi_startproc
	pushq	%rbp
	.cfi_def_cfa_offset 16
	.cfi_offset 6, -16
	movq	%rsp, %rbp
	.cfi_def_cfa_register 6
	movq	%rdi, -8(%rbp)
	movq	-8(%rbp), %rax
	movq	8(%rax), %rdx
	movq	-8(%rbp), %rax
	movq	(%rax), %rax
	subq	%rax, %rdx
	movq	%rdx, %rax
	sarq	$3, %rax
	popq	%rbp
	.cfi_def_cfa 7, 8
	ret
	.cfi_endproc
.LFE4480:
	.size	_ZNKSt6vectorIdSaIdEE4sizeEv, .-_ZNKSt6vectorIdSaIdEE4sizeEv
	.section	.text._ZNSt6vectorIdSaIdEE5beginEv,"axG",@progbits,_ZNSt6vectorIdSaIdEE5beginEv,comdat
	.align 2
	.weak	_ZNSt6vectorIdSaIdEE5beginEv
	.type	_ZNSt6vectorIdSaIdEE5beginEv, @function
_ZNSt6vectorIdSaIdEE5beginEv:
.LFB4481:
	.cfi_startproc
	pushq	%rbp
	.cfi_def_cfa_offset 16
	.cfi_offset 6, -16
	movq	%rsp, %rbp
	.cfi_def_cfa_register 6
	subq	$32, %rsp
	movq	%rdi, -24(%rbp)
	movq	%fs:40, %rax
	movq	%rax, -8(%rbp)
	xorl	%eax, %eax
	movq	-24(%rbp), %rdx
	leaq	-16(%rbp), %rax
	movq	%rdx, %rsi
	movq	%rax, %rdi
	call	_ZN9__gnu_cxx17__normal_iteratorIPdSt6vectorIdSaIdEEEC1ERKS1_
	movq	-16(%rbp), %rax
	movq	-8(%rbp), %rdx
	subq	%fs:40, %rdx
	je	.L419
	call	__stack_chk_fail@PLT
.L419:
	leave
	.cfi_def_cfa 7, 8
	ret
	.cfi_endproc
.LFE4481:
	.size	_ZNSt6vectorIdSaIdEE5beginEv, .-_ZNSt6vectorIdSaIdEE5beginEv
	.section	.text._ZN9__gnu_cxx17__normal_iteratorIPdSt6vectorIdSaIdEEEC2ERKS1_,"axG",@progbits,_ZN9__gnu_cxx17__normal_iteratorIPdSt6vectorIdSaIdEEEC5ERKS1_,comdat
	.align 2
	.weak	_ZN9__gnu_cxx17__normal_iteratorIPdSt6vectorIdSaIdEEEC2ERKS1_
	.type	_ZN9__gnu_cxx17__normal_iteratorIPdSt6vectorIdSaIdEEEC2ERKS1_, @function
_ZN9__gnu_cxx17__normal_iteratorIPdSt6vectorIdSaIdEEEC2ERKS1_:
.LFB4483:
	.cfi_startproc
	pushq	%rbp
	.cfi_def_cfa_offset 16
	.cfi_offset 6, -16
	movq	%rsp, %rbp
	.cfi_def_cfa_register 6
	movq	%rdi, -8(%rbp)
	movq	%rsi, -16(%rbp)
	movq	-16(%rbp), %rax
	movq	(%rax), %rdx
	movq	-8(%rbp), %rax
	movq	%rdx, (%rax)
	nop
	popq	%rbp
	.cfi_def_cfa 7, 8
	ret
	.cfi_endproc
.LFE4483:
	.size	_ZN9__gnu_cxx17__normal_iteratorIPdSt6vectorIdSaIdEEEC2ERKS1_, .-_ZN9__gnu_cxx17__normal_iteratorIPdSt6vectorIdSaIdEEEC2ERKS1_
	.weak	_ZN9__gnu_cxx17__normal_iteratorIPdSt6vectorIdSaIdEEEC1ERKS1_
	.set	_ZN9__gnu_cxx17__normal_iteratorIPdSt6vectorIdSaIdEEEC1ERKS1_,_ZN9__gnu_cxx17__normal_iteratorIPdSt6vectorIdSaIdEEEC2ERKS1_
	.text
	.align 2
	.type	_ZZN11fp_specific10double_mapESt8functionIFddEESt6vectorIdSaIdEEENUlS5_dE_C2ERKS6_, @function
_ZZN11fp_specific10double_mapESt8functionIFddEESt6vectorIdSaIdEEENUlS5_dE_C2ERKS6_:
.LFB4486:
	.cfi_startproc
	pushq	%rbp
	.cfi_def_cfa_offset 16
	.cfi_offset 6, -16
	movq	%rsp, %rbp
	.cfi_def_cfa_register 6
	subq	$16, %rsp
	movq	%rdi, -8(%rbp)
	movq	%rsi, -16(%rbp)
	movq	-8(%rbp), %rax
	movq	-16(%rbp), %rdx
	movq	%rdx, %rsi
	movq	%rax, %rdi
	call	_ZNSt8functionIFddEEC1ERKS1_
	nop
	leave
	.cfi_def_cfa 7, 8
	ret
	.cfi_endproc
.LFE4486:
	.size	_ZZN11fp_specific10double_mapESt8functionIFddEESt6vectorIdSaIdEEENUlS5_dE_C2ERKS6_, .-_ZZN11fp_specific10double_mapESt8functionIFddEESt6vectorIdSaIdEEENUlS5_dE_C2ERKS6_
	.set	_ZZN11fp_specific10double_mapESt8functionIFddEESt6vectorIdSaIdEEENUlS5_dE_C1ERKS6_,_ZZN11fp_specific10double_mapESt8functionIFddEESt6vectorIdSaIdEEENUlS5_dE_C2ERKS6_
	.type	_ZN2fp6reduceIZN11fp_specific10double_mapESt8functionIFddEESt6vectorIdSaIdEEEUlS7_dE_S7_S7_EET1_T_T0_S9_, @function
_ZN2fp6reduceIZN11fp_specific10double_mapESt8functionIFddEESt6vectorIdSaIdEEEUlS7_dE_S7_S7_EET1_T_T0_S9_:
.LFB4479:
	.cfi_startproc
	.cfi_personality 0x9b,DW.ref.__gxx_personality_v0
	.cfi_lsda 0x1b,.LLSDA4479
	pushq	%rbp
	.cfi_def_cfa_offset 16
	.cfi_offset 6, -16
	movq	%rsp, %rbp
	.cfi_def_cfa_register 6
	pushq	%rbx
	subq	$232, %rsp
	.cfi_offset 3, -24
	movq	%rdi, -216(%rbp)
	movq	%rsi, -224(%rbp)
	movq	%rdx, -232(%rbp)
	movq	%rcx, -240(%rbp)
	movq	%fs:40, %rax
	movq	%rax, -24(%rbp)
	xorl	%eax, %eax
	movq	-232(%rbp), %rax
	movq	%rax, %rdi
	call	_ZNKSt6vectorIdSaIdEE4sizeEv
	testq	%rax, %rax
	sete	%al
	testb	%al, %al
	je	.L423
	movq	-240(%rbp), %rdx
	movq	-216(%rbp), %rax
	movq	%rdx, %rsi
	movq	%rax, %rdi
	call	_ZNSt6vectorIdSaIdEEC1EOS1_
	jmp	.L422
.L423:
	leaq	-128(%rbp), %rax
	movq	%rax, -200(%rbp)
	nop
	nop
	movq	-232(%rbp), %rax
	movq	%rax, %rdi
	call	_ZNSt6vectorIdSaIdEE3endEv
	movq	%rax, %rbx
	movq	-232(%rbp), %rax
	movq	%rax, %rdi
	call	_ZNSt6vectorIdSaIdEE5beginEv
	movq	%rax, -96(%rbp)
	leaq	-96(%rbp), %rax
	movl	$1, %esi
	movq	%rax, %rdi
	call	_ZNK9__gnu_cxx17__normal_iteratorIPdSt6vectorIdSaIdEEEplEl
	movq	%rax, %rsi
	leaq	-128(%rbp), %rdx
	leaq	-192(%rbp), %rax
	movq	%rdx, %rcx
	movq	%rbx, %rdx
	movq	%rax, %rdi
.LEHB90:
	call	_ZNSt6vectorIdSaIdEEC1IN9__gnu_cxx17__normal_iteratorIPdS1_EEvEET_S7_RKS0_
.LEHE90:
	nop
	movq	-232(%rbp), %rax
	movl	$0, %esi
	movq	%rax, %rdi
	call	_ZNSt6vectorIdSaIdEEixEm
	movq	(%rax), %rbx
	movq	-240(%rbp), %rdx
	leaq	-160(%rbp), %rax
	movq	%rdx, %rsi
	movq	%rax, %rdi
.LEHB91:
	call	_ZNSt6vectorIdSaIdEEC1ERKS1_
.LEHE91:
	leaq	-128(%rbp), %rax
	leaq	-160(%rbp), %rdx
	movq	-224(%rbp), %rcx
	movq	%rbx, %xmm0
	movq	%rcx, %rsi
	movq	%rax, %rdi
.LEHB92:
	call	_ZZN11fp_specific10double_mapESt8functionIFddEESt6vectorIdSaIdEEENKUlS5_dE_clES5_d
.LEHE92:
	leaq	-192(%rbp), %rdx
	leaq	-96(%rbp), %rax
	movq	%rdx, %rsi
	movq	%rax, %rdi
.LEHB93:
	call	_ZNSt6vectorIdSaIdEEC1ERKS1_
.LEHE93:
	movq	-224(%rbp), %rdx
	leaq	-64(%rbp), %rax
	movq	%rdx, %rsi
	movq	%rax, %rdi
.LEHB94:
	call	_ZZN11fp_specific10double_mapESt8functionIFddEESt6vectorIdSaIdEEENUlS5_dE_C1ERKS6_
.LEHE94:
	movq	-216(%rbp), %rax
	leaq	-128(%rbp), %rcx
	leaq	-96(%rbp), %rdx
	leaq	-64(%rbp), %rsi
	movq	%rax, %rdi
.LEHB95:
	call	_ZN2fp6reduceIZN11fp_specific10double_mapESt8functionIFddEESt6vectorIdSaIdEEEUlS7_dE_S7_S7_EET1_T_T0_S9_
.LEHE95:
	leaq	-64(%rbp), %rax
	movq	%rax, %rdi
	call	_ZZN11fp_specific10double_mapESt8functionIFddEESt6vectorIdSaIdEEENUlS5_dE_D1Ev
	leaq	-96(%rbp), %rax
	movq	%rax, %rdi
	call	_ZNSt6vectorIdSaIdEED1Ev
	leaq	-128(%rbp), %rax
	movq	%rax, %rdi
	call	_ZNSt6vectorIdSaIdEED1Ev
	leaq	-160(%rbp), %rax
	movq	%rax, %rdi
	call	_ZNSt6vectorIdSaIdEED1Ev
	leaq	-192(%rbp), %rax
	movq	%rax, %rdi
	call	_ZNSt6vectorIdSaIdEED1Ev
	jmp	.L422
.L435:
	nop
	movq	-24(%rbp), %rdx
	subq	%fs:40, %rdx
	je	.L427
	call	__stack_chk_fail@PLT
.L427:
	movq	%rax, %rdi
.LEHB96:
	call	_Unwind_Resume@PLT
.L440:
	movq	%rax, %rbx
	leaq	-64(%rbp), %rax
	movq	%rax, %rdi
	call	_ZZN11fp_specific10double_mapESt8functionIFddEESt6vectorIdSaIdEEENUlS5_dE_D1Ev
	jmp	.L429
.L439:
	movq	%rax, %rbx
.L429:
	leaq	-96(%rbp), %rax
	movq	%rax, %rdi
	call	_ZNSt6vectorIdSaIdEED1Ev
	jmp	.L430
.L438:
	movq	%rax, %rbx
.L430:
	leaq	-128(%rbp), %rax
	movq	%rax, %rdi
	call	_ZNSt6vectorIdSaIdEED1Ev
	jmp	.L431
.L437:
	movq	%rax, %rbx
.L431:
	leaq	-160(%rbp), %rax
	movq	%rax, %rdi
	call	_ZNSt6vectorIdSaIdEED1Ev
	jmp	.L432
.L436:
	movq	%rax, %rbx
.L432:
	leaq	-192(%rbp), %rax
	movq	%rax, %rdi
	call	_ZNSt6vectorIdSaIdEED1Ev
	movq	%rbx, %rax
	movq	-24(%rbp), %rdx
	subq	%fs:40, %rdx
	je	.L433
	call	__stack_chk_fail@PLT
.L433:
	movq	%rax, %rdi
	call	_Unwind_Resume@PLT
.LEHE96:
.L422:
	movq	-24(%rbp), %rax
	subq	%fs:40, %rax
	je	.L434
	call	__stack_chk_fail@PLT
.L434:
	movq	-216(%rbp), %rax
	movq	-8(%rbp), %rbx
	leave
	.cfi_def_cfa 7, 8
	ret
	.cfi_endproc
.LFE4479:
	.section	.gcc_except_table
.LLSDA4479:
	.byte	0xff
	.byte	0xff
	.byte	0x1
	.uleb128 .LLSDACSE4479-.LLSDACSB4479
.LLSDACSB4479:
	.uleb128 .LEHB90-.LFB4479
	.uleb128 .LEHE90-.LEHB90
	.uleb128 .L435-.LFB4479
	.uleb128 0
	.uleb128 .LEHB91-.LFB4479
	.uleb128 .LEHE91-.LEHB91
	.uleb128 .L436-.LFB4479
	.uleb128 0
	.uleb128 .LEHB92-.LFB4479
	.uleb128 .LEHE92-.LEHB92
	.uleb128 .L437-.LFB4479
	.uleb128 0
	.uleb128 .LEHB93-.LFB4479
	.uleb128 .LEHE93-.LEHB93
	.uleb128 .L438-.LFB4479
	.uleb128 0
	.uleb128 .LEHB94-.LFB4479
	.uleb128 .LEHE94-.LEHB94
	.uleb128 .L439-.LFB4479
	.uleb128 0
	.uleb128 .LEHB95-.LFB4479
	.uleb128 .LEHE95-.LEHB95
	.uleb128 .L440-.LFB4479
	.uleb128 0
	.uleb128 .LEHB96-.LFB4479
	.uleb128 .LEHE96-.LEHB96
	.uleb128 0
	.uleb128 0
.LLSDACSE4479:
	.text
	.size	_ZN2fp6reduceIZN11fp_specific10double_mapESt8functionIFddEESt6vectorIdSaIdEEEUlS7_dE_S7_S7_EET1_T_T0_S9_, .-_ZN2fp6reduceIZN11fp_specific10double_mapESt8functionIFddEESt6vectorIdSaIdEEEUlS7_dE_S7_S7_EET1_T_T0_S9_
	.section	.text._ZNSt12_Vector_baseIfSaIfEED2Ev,"axG",@progbits,_ZNSt12_Vector_baseIfSaIfEED5Ev,comdat
	.align 2
	.weak	_ZNSt12_Vector_baseIfSaIfEED2Ev
	.type	_ZNSt12_Vector_baseIfSaIfEED2Ev, @function
_ZNSt12_Vector_baseIfSaIfEED2Ev:
.LFB4492:
	.cfi_startproc
	.cfi_personality 0x9b,DW.ref.__gxx_personality_v0
	.cfi_lsda 0x1b,.LLSDA4492
	pushq	%rbp
	.cfi_def_cfa_offset 16
	.cfi_offset 6, -16
	movq	%rsp, %rbp
	.cfi_def_cfa_register 6
	subq	$16, %rsp
	movq	%rdi, -8(%rbp)
	movq	-8(%rbp), %rax
	movq	16(%rax), %rdx
	movq	-8(%rbp), %rax
	movq	(%rax), %rax
	subq	%rax, %rdx
	movq	%rdx, %rax
	sarq	$2, %rax
	movq	%rax, %rdx
	movq	-8(%rbp), %rax
	movq	(%rax), %rcx
	movq	-8(%rbp), %rax
	movq	%rcx, %rsi
	movq	%rax, %rdi
	call	_ZNSt12_Vector_baseIfSaIfEE13_M_deallocateEPfm
	movq	-8(%rbp), %rax
	movq	%rax, %rdi
	call	_ZNSt12_Vector_baseIfSaIfEE12_Vector_implD1Ev
	nop
	leave
	.cfi_def_cfa 7, 8
	ret
	.cfi_endproc
.LFE4492:
	.section	.gcc_except_table
.LLSDA4492:
	.byte	0xff
	.byte	0xff
	.byte	0x1
	.uleb128 .LLSDACSE4492-.LLSDACSB4492
.LLSDACSB4492:
.LLSDACSE4492:
	.section	.text._ZNSt12_Vector_baseIfSaIfEED2Ev,"axG",@progbits,_ZNSt12_Vector_baseIfSaIfEED5Ev,comdat
	.size	_ZNSt12_Vector_baseIfSaIfEED2Ev, .-_ZNSt12_Vector_baseIfSaIfEED2Ev
	.weak	_ZNSt12_Vector_baseIfSaIfEED1Ev
	.set	_ZNSt12_Vector_baseIfSaIfEED1Ev,_ZNSt12_Vector_baseIfSaIfEED2Ev
	.section	.text._ZNSt6vectorIfSaIfEED2Ev,"axG",@progbits,_ZNSt6vectorIfSaIfEED5Ev,comdat
	.align 2
	.weak	_ZNSt6vectorIfSaIfEED2Ev
	.type	_ZNSt6vectorIfSaIfEED2Ev, @function
_ZNSt6vectorIfSaIfEED2Ev:
.LFB4495:
	.cfi_startproc
	.cfi_personality 0x9b,DW.ref.__gxx_personality_v0
	.cfi_lsda 0x1b,.LLSDA4495
	pushq	%rbp
	.cfi_def_cfa_offset 16
	.cfi_offset 6, -16
	movq	%rsp, %rbp
	.cfi_def_cfa_register 6
	subq	$48, %rsp
	movq	%rdi, -40(%rbp)
	movq	-40(%rbp), %rax
	movq	%rax, %rdi
	call	_ZNSt12_Vector_baseIfSaIfEE19_M_get_Tp_allocatorEv
	movq	-40(%rbp), %rdx
	movq	8(%rdx), %rdx
	movq	-40(%rbp), %rcx
	movq	(%rcx), %rcx
	movq	%rcx, -24(%rbp)
	movq	%rdx, -16(%rbp)
	movq	%rax, -8(%rbp)
	movq	-16(%rbp), %rdx
	movq	-24(%rbp), %rax
	movq	%rdx, %rsi
	movq	%rax, %rdi
	call	_ZSt8_DestroyIPfEvT_S1_
	nop
	movq	-40(%rbp), %rax
	movq	%rax, %rdi
	call	_ZNSt12_Vector_baseIfSaIfEED2Ev
	nop
	leave
	.cfi_def_cfa 7, 8
	ret
	.cfi_endproc
.LFE4495:
	.section	.gcc_except_table
.LLSDA4495:
	.byte	0xff
	.byte	0xff
	.byte	0x1
	.uleb128 .LLSDACSE4495-.LLSDACSB4495
.LLSDACSB4495:
.LLSDACSE4495:
	.section	.text._ZNSt6vectorIfSaIfEED2Ev,"axG",@progbits,_ZNSt6vectorIfSaIfEED5Ev,comdat
	.size	_ZNSt6vectorIfSaIfEED2Ev, .-_ZNSt6vectorIfSaIfEED2Ev
	.weak	_ZNSt6vectorIfSaIfEED1Ev
	.set	_ZNSt6vectorIfSaIfEED1Ev,_ZNSt6vectorIfSaIfEED2Ev
	.section	.text._ZNKSt8functionIFffEEclEf,"axG",@progbits,_ZNKSt8functionIFffEEclEf,comdat
	.align 2
	.weak	_ZNKSt8functionIFffEEclEf
	.type	_ZNKSt8functionIFffEEclEf, @function
_ZNKSt8functionIFffEEclEf:
.LFB4497:
	.cfi_startproc
	pushq	%rbp
	.cfi_def_cfa_offset 16
	.cfi_offset 6, -16
	movq	%rsp, %rbp
	.cfi_def_cfa_register 6
	pushq	%rbx
	subq	$24, %rsp
	.cfi_offset 3, -24
	movq	%rdi, -24(%rbp)
	movss	%xmm0, -28(%rbp)
	movq	-24(%rbp), %rax
	movq	%rax, %rdi
	call	_ZNKSt14_Function_base8_M_emptyEv
	testb	%al, %al
	je	.L444
	call	_ZSt25__throw_bad_function_callv@PLT
.L444:
	movq	-24(%rbp), %rax
	movq	24(%rax), %rbx
	leaq	-28(%rbp), %rax
	movq	%rax, %rdi
	call	_ZSt7forwardIfEOT_RNSt16remove_referenceIS0_E4typeE
	movq	%rax, %rdx
	movq	-24(%rbp), %rax
	movq	%rdx, %rsi
	movq	%rax, %rdi
	call	*%rbx
	movq	-8(%rbp), %rbx
	leave
	.cfi_def_cfa 7, 8
	ret
	.cfi_endproc
.LFE4497:
	.size	_ZNKSt8functionIFffEEclEf, .-_ZNKSt8functionIFffEEclEf
	.section	.text._ZNSt6vectorIfSaIfEE9push_backEOf,"axG",@progbits,_ZNSt6vectorIfSaIfEE9push_backEOf,comdat
	.align 2
	.weak	_ZNSt6vectorIfSaIfEE9push_backEOf
	.type	_ZNSt6vectorIfSaIfEE9push_backEOf, @function
_ZNSt6vectorIfSaIfEE9push_backEOf:
.LFB4498:
	.cfi_startproc
	pushq	%rbp
	.cfi_def_cfa_offset 16
	.cfi_offset 6, -16
	movq	%rsp, %rbp
	.cfi_def_cfa_register 6
	subq	$16, %rsp
	movq	%rdi, -8(%rbp)
	movq	%rsi, -16(%rbp)
	movq	-16(%rbp), %rax
	movq	%rax, %rdi
	call	_ZSt4moveIRfEONSt16remove_referenceIT_E4typeEOS2_
	movq	%rax, %rdx
	movq	-8(%rbp), %rax
	movq	%rdx, %rsi
	movq	%rax, %rdi
	call	_ZNSt6vectorIfSaIfEE12emplace_backIJfEEERfDpOT_
	nop
	leave
	.cfi_def_cfa 7, 8
	ret
	.cfi_endproc
.LFE4498:
	.size	_ZNSt6vectorIfSaIfEE9push_backEOf, .-_ZNSt6vectorIfSaIfEE9push_backEOf
	.section	.text._ZNSt12_Vector_baseIfSaIfEE12_Vector_implC2EOS2_,"axG",@progbits,_ZNSt12_Vector_baseIfSaIfEE12_Vector_implC5EOS2_,comdat
	.align 2
	.weak	_ZNSt12_Vector_baseIfSaIfEE12_Vector_implC2EOS2_
	.type	_ZNSt12_Vector_baseIfSaIfEE12_Vector_implC2EOS2_, @function
_ZNSt12_Vector_baseIfSaIfEE12_Vector_implC2EOS2_:
.LFB4500:
	.cfi_startproc
	pushq	%rbp
	.cfi_def_cfa_offset 16
	.cfi_offset 6, -16
	movq	%rsp, %rbp
	.cfi_def_cfa_register 6
	pushq	%rbx
	subq	$56, %rsp
	.cfi_offset 3, -24
	movq	%rdi, -56(%rbp)
	movq	%rsi, -64(%rbp)
	movq	-64(%rbp), %rax
	movq	%rax, %rdi
	call	_ZSt4moveIRNSt12_Vector_baseIfSaIfEE12_Vector_implEEONSt16remove_referenceIT_E4typeEOS6_
	movq	-56(%rbp), %rdx
	movq	%rdx, -48(%rbp)
	movq	%rax, -40(%rbp)
	movq	-48(%rbp), %rax
	movq	%rax, -32(%rbp)
	movq	-40(%rbp), %rax
	movq	%rax, -24(%rbp)
	nop
	nop
	movq	-56(%rbp), %rbx
	movq	-64(%rbp), %rax
	movq	%rax, %rdi
	call	_ZSt4moveIRNSt12_Vector_baseIfSaIfEE12_Vector_implEEONSt16remove_referenceIT_E4typeEOS6_
	movq	%rax, %rsi
	movq	%rbx, %rdi
	call	_ZNSt12_Vector_baseIfSaIfEE17_Vector_impl_dataC2EOS2_
	nop
	movq	-8(%rbp), %rbx
	leave
	.cfi_def_cfa 7, 8
	ret
	.cfi_endproc
.LFE4500:
	.size	_ZNSt12_Vector_baseIfSaIfEE12_Vector_implC2EOS2_, .-_ZNSt12_Vector_baseIfSaIfEE12_Vector_implC2EOS2_
	.weak	_ZNSt12_Vector_baseIfSaIfEE12_Vector_implC1EOS2_
	.set	_ZNSt12_Vector_baseIfSaIfEE12_Vector_implC1EOS2_,_ZNSt12_Vector_baseIfSaIfEE12_Vector_implC2EOS2_
	.section	.text._ZNSt8functionIFffEEC2ERKS1_,"axG",@progbits,_ZNSt8functionIFffEEC5ERKS1_,comdat
	.align 2
	.weak	_ZNSt8functionIFffEEC2ERKS1_
	.type	_ZNSt8functionIFffEEC2ERKS1_, @function
_ZNSt8functionIFffEEC2ERKS1_:
.LFB4503:
	.cfi_startproc
	.cfi_personality 0x9b,DW.ref.__gxx_personality_v0
	.cfi_lsda 0x1b,.LLSDA4503
	pushq	%rbp
	.cfi_def_cfa_offset 16
	.cfi_offset 6, -16
	movq	%rsp, %rbp
	.cfi_def_cfa_register 6
	pushq	%rbx
	subq	$24, %rsp
	.cfi_offset 3, -24
	movq	%rdi, -24(%rbp)
	movq	%rsi, -32(%rbp)
	movq	-24(%rbp), %rax
	pxor	%xmm0, %xmm0
	movups	%xmm0, (%rax)
	movq	%xmm0, 16(%rax)
	movq	-24(%rbp), %rax
	movq	%rax, %rdi
	call	_ZNSt14_Function_baseC2Ev
	movq	-24(%rbp), %rax
	movq	$0, 24(%rax)
	movq	-32(%rbp), %rax
	movq	%rax, %rdi
	call	_ZNKSt8functionIFffEEcvbEv
	testb	%al, %al
	je	.L452
	movq	-32(%rbp), %rax
	movq	16(%rax), %r8
	movq	-32(%rbp), %rcx
	movq	-24(%rbp), %rax
	movl	$2, %edx
	movq	%rcx, %rsi
	movq	%rax, %rdi
.LEHB97:
	call	*%r8
.LEHE97:
	movq	-32(%rbp), %rax
	movq	24(%rax), %rdx
	movq	-24(%rbp), %rax
	movq	%rdx, 24(%rax)
	movq	-32(%rbp), %rax
	movq	16(%rax), %rdx
	movq	-24(%rbp), %rax
	movq	%rdx, 16(%rax)
	jmp	.L452
.L451:
	movq	%rax, %rbx
	movq	-24(%rbp), %rax
	movq	%rax, %rdi
	call	_ZNSt14_Function_baseD2Ev
	movq	%rbx, %rax
	movq	%rax, %rdi
.LEHB98:
	call	_Unwind_Resume@PLT
.LEHE98:
.L452:
	nop
	movq	-8(%rbp), %rbx
	leave
	.cfi_def_cfa 7, 8
	ret
	.cfi_endproc
.LFE4503:
	.section	.gcc_except_table
.LLSDA4503:
	.byte	0xff
	.byte	0xff
	.byte	0x1
	.uleb128 .LLSDACSE4503-.LLSDACSB4503
.LLSDACSB4503:
	.uleb128 .LEHB97-.LFB4503
	.uleb128 .LEHE97-.LEHB97
	.uleb128 .L451-.LFB4503
	.uleb128 0
	.uleb128 .LEHB98-.LFB4503
	.uleb128 .LEHE98-.LEHB98
	.uleb128 0
	.uleb128 0
.LLSDACSE4503:
	.section	.text._ZNSt8functionIFffEEC2ERKS1_,"axG",@progbits,_ZNSt8functionIFffEEC5ERKS1_,comdat
	.size	_ZNSt8functionIFffEEC2ERKS1_, .-_ZNSt8functionIFffEEC2ERKS1_
	.weak	_ZNSt8functionIFffEEC1ERKS1_
	.set	_ZNSt8functionIFffEEC1ERKS1_,_ZNSt8functionIFffEEC2ERKS1_
	.section	.text._ZNSt6vectorIfSaIfEEC2ERKS1_,"axG",@progbits,_ZNSt6vectorIfSaIfEEC5ERKS1_,comdat
	.align 2
	.weak	_ZNSt6vectorIfSaIfEEC2ERKS1_
	.type	_ZNSt6vectorIfSaIfEEC2ERKS1_, @function
_ZNSt6vectorIfSaIfEEC2ERKS1_:
.LFB4506:
	.cfi_startproc
	.cfi_personality 0x9b,DW.ref.__gxx_personality_v0
	.cfi_lsda 0x1b,.LLSDA4506
	pushq	%rbp
	.cfi_def_cfa_offset 16
	.cfi_offset 6, -16
	movq	%rsp, %rbp
	.cfi_def_cfa_register 6
	pushq	%r13
	pushq	%r12
	pushq	%rbx
	subq	$88, %rsp
	.cfi_offset 13, -24
	.cfi_offset 12, -32
	.cfi_offset 3, -40
	movq	%rdi, -104(%rbp)
	movq	%rsi, -112(%rbp)
	movq	%fs:40, %rax
	movq	%rax, -40(%rbp)
	xorl	%eax, %eax
	movq	-104(%rbp), %rbx
	movq	-112(%rbp), %rax
	movq	%rax, %rdi
	call	_ZNKSt12_Vector_baseIfSaIfEE19_M_get_Tp_allocatorEv
	movq	%rax, -88(%rbp)
	leaq	-89(%rbp), %rax
	movq	-88(%rbp), %rdx
	movq	%rdx, -80(%rbp)
	movq	%rax, -72(%rbp)
	movq	-80(%rbp), %rax
	movq	%rax, -64(%rbp)
	movq	-72(%rbp), %rax
	movq	%rax, -56(%rbp)
	movq	-64(%rbp), %rax
	movq	%rax, -48(%rbp)
	nop
	nop
	nop
	nop
	movq	-112(%rbp), %rax
	movq	%rax, %rdi
	call	_ZNKSt6vectorIfSaIfEE4sizeEv
	movq	%rax, %rcx
	leaq	-89(%rbp), %rax
	movq	%rax, %rdx
	movq	%rcx, %rsi
	movq	%rbx, %rdi
.LEHB99:
	call	_ZNSt12_Vector_baseIfSaIfEEC2EmRKS0_
.LEHE99:
	nop
	movq	-104(%rbp), %rax
	movq	%rax, %rdi
	call	_ZNSt12_Vector_baseIfSaIfEE19_M_get_Tp_allocatorEv
	movq	%rax, %r13
	movq	-104(%rbp), %rax
	movq	(%rax), %rbx
	movq	-112(%rbp), %rax
	movq	%rax, %rdi
	call	_ZNKSt6vectorIfSaIfEE3endEv
	movq	%rax, %r12
	movq	-112(%rbp), %rax
	movq	%rax, %rdi
	call	_ZNKSt6vectorIfSaIfEE5beginEv
	movq	%r13, %rcx
	movq	%rbx, %rdx
	movq	%r12, %rsi
	movq	%rax, %rdi
.LEHB100:
	call	_ZSt22__uninitialized_copy_aIN9__gnu_cxx17__normal_iteratorIPKfSt6vectorIfSaIfEEEEPffET0_T_SA_S9_RSaIT1_E
.LEHE100:
	movq	-104(%rbp), %rdx
	movq	%rax, 8(%rdx)
	nop
	movq	-40(%rbp), %rax
	subq	%fs:40, %rax
	je	.L458
	jmp	.L460
.L459:
	movq	%rax, %rbx
	movq	-104(%rbp), %rax
	movq	%rax, %rdi
	call	_ZNSt12_Vector_baseIfSaIfEED2Ev
	movq	%rbx, %rax
	movq	-40(%rbp), %rdx
	subq	%fs:40, %rdx
	je	.L457
	call	__stack_chk_fail@PLT
.L457:
	movq	%rax, %rdi
.LEHB101:
	call	_Unwind_Resume@PLT
.LEHE101:
.L460:
	call	__stack_chk_fail@PLT
.L458:
	addq	$88, %rsp
	popq	%rbx
	popq	%r12
	popq	%r13
	popq	%rbp
	.cfi_def_cfa 7, 8
	ret
	.cfi_endproc
.LFE4506:
	.section	.gcc_except_table
.LLSDA4506:
	.byte	0xff
	.byte	0xff
	.byte	0x1
	.uleb128 .LLSDACSE4506-.LLSDACSB4506
.LLSDACSB4506:
	.uleb128 .LEHB99-.LFB4506
	.uleb128 .LEHE99-.LEHB99
	.uleb128 0
	.uleb128 0
	.uleb128 .LEHB100-.LFB4506
	.uleb128 .LEHE100-.LEHB100
	.uleb128 .L459-.LFB4506
	.uleb128 0
	.uleb128 .LEHB101-.LFB4506
	.uleb128 .LEHE101-.LEHB101
	.uleb128 0
	.uleb128 0
.LLSDACSE4506:
	.section	.text._ZNSt6vectorIfSaIfEEC2ERKS1_,"axG",@progbits,_ZNSt6vectorIfSaIfEEC5ERKS1_,comdat
	.size	_ZNSt6vectorIfSaIfEEC2ERKS1_, .-_ZNSt6vectorIfSaIfEEC2ERKS1_
	.weak	_ZNSt6vectorIfSaIfEEC1ERKS1_
	.set	_ZNSt6vectorIfSaIfEEC1ERKS1_,_ZNSt6vectorIfSaIfEEC2ERKS1_
	.section	.text._ZNKSt6vectorIfSaIfEE4sizeEv,"axG",@progbits,_ZNKSt6vectorIfSaIfEE4sizeEv,comdat
	.align 2
	.weak	_ZNKSt6vectorIfSaIfEE4sizeEv
	.type	_ZNKSt6vectorIfSaIfEE4sizeEv, @function
_ZNKSt6vectorIfSaIfEE4sizeEv:
.LFB4509:
	.cfi_startproc
	pushq	%rbp
	.cfi_def_cfa_offset 16
	.cfi_offset 6, -16
	movq	%rsp, %rbp
	.cfi_def_cfa_register 6
	movq	%rdi, -8(%rbp)
	movq	-8(%rbp), %rax
	movq	8(%rax), %rdx
	movq	-8(%rbp), %rax
	movq	(%rax), %rax
	subq	%rax, %rdx
	movq	%rdx, %rax
	sarq	$2, %rax
	popq	%rbp
	.cfi_def_cfa 7, 8
	ret
	.cfi_endproc
.LFE4509:
	.size	_ZNKSt6vectorIfSaIfEE4sizeEv, .-_ZNKSt6vectorIfSaIfEE4sizeEv
	.section	.text._ZNSt6vectorIfSaIfEE5beginEv,"axG",@progbits,_ZNSt6vectorIfSaIfEE5beginEv,comdat
	.align 2
	.weak	_ZNSt6vectorIfSaIfEE5beginEv
	.type	_ZNSt6vectorIfSaIfEE5beginEv, @function
_ZNSt6vectorIfSaIfEE5beginEv:
.LFB4510:
	.cfi_startproc
	pushq	%rbp
	.cfi_def_cfa_offset 16
	.cfi_offset 6, -16
	movq	%rsp, %rbp
	.cfi_def_cfa_register 6
	subq	$32, %rsp
	movq	%rdi, -24(%rbp)
	movq	%fs:40, %rax
	movq	%rax, -8(%rbp)
	xorl	%eax, %eax
	movq	-24(%rbp), %rdx
	leaq	-16(%rbp), %rax
	movq	%rdx, %rsi
	movq	%rax, %rdi
	call	_ZN9__gnu_cxx17__normal_iteratorIPfSt6vectorIfSaIfEEEC1ERKS1_
	movq	-16(%rbp), %rax
	movq	-8(%rbp), %rdx
	subq	%fs:40, %rdx
	je	.L465
	call	__stack_chk_fail@PLT
.L465:
	leave
	.cfi_def_cfa 7, 8
	ret
	.cfi_endproc
.LFE4510:
	.size	_ZNSt6vectorIfSaIfEE5beginEv, .-_ZNSt6vectorIfSaIfEE5beginEv
	.section	.text._ZN9__gnu_cxx17__normal_iteratorIPfSt6vectorIfSaIfEEEC2ERKS1_,"axG",@progbits,_ZN9__gnu_cxx17__normal_iteratorIPfSt6vectorIfSaIfEEEC5ERKS1_,comdat
	.align 2
	.weak	_ZN9__gnu_cxx17__normal_iteratorIPfSt6vectorIfSaIfEEEC2ERKS1_
	.type	_ZN9__gnu_cxx17__normal_iteratorIPfSt6vectorIfSaIfEEEC2ERKS1_, @function
_ZN9__gnu_cxx17__normal_iteratorIPfSt6vectorIfSaIfEEEC2ERKS1_:
.LFB4512:
	.cfi_startproc
	pushq	%rbp
	.cfi_def_cfa_offset 16
	.cfi_offset 6, -16
	movq	%rsp, %rbp
	.cfi_def_cfa_register 6
	movq	%rdi, -8(%rbp)
	movq	%rsi, -16(%rbp)
	movq	-16(%rbp), %rax
	movq	(%rax), %rdx
	movq	-8(%rbp), %rax
	movq	%rdx, (%rax)
	nop
	popq	%rbp
	.cfi_def_cfa 7, 8
	ret
	.cfi_endproc
.LFE4512:
	.size	_ZN9__gnu_cxx17__normal_iteratorIPfSt6vectorIfSaIfEEEC2ERKS1_, .-_ZN9__gnu_cxx17__normal_iteratorIPfSt6vectorIfSaIfEEEC2ERKS1_
	.weak	_ZN9__gnu_cxx17__normal_iteratorIPfSt6vectorIfSaIfEEEC1ERKS1_
	.set	_ZN9__gnu_cxx17__normal_iteratorIPfSt6vectorIfSaIfEEEC1ERKS1_,_ZN9__gnu_cxx17__normal_iteratorIPfSt6vectorIfSaIfEEEC2ERKS1_
	.text
	.align 2
	.type	_ZZN11fp_specific9float_mapESt8functionIFffEESt6vectorIfSaIfEEENUlS5_fE_C2ERKS6_, @function
_ZZN11fp_specific9float_mapESt8functionIFffEESt6vectorIfSaIfEEENUlS5_fE_C2ERKS6_:
.LFB4515:
	.cfi_startproc
	pushq	%rbp
	.cfi_def_cfa_offset 16
	.cfi_offset 6, -16
	movq	%rsp, %rbp
	.cfi_def_cfa_register 6
	subq	$16, %rsp
	movq	%rdi, -8(%rbp)
	movq	%rsi, -16(%rbp)
	movq	-8(%rbp), %rax
	movq	-16(%rbp), %rdx
	movq	%rdx, %rsi
	movq	%rax, %rdi
	call	_ZNSt8functionIFffEEC1ERKS1_
	nop
	leave
	.cfi_def_cfa 7, 8
	ret
	.cfi_endproc
.LFE4515:
	.size	_ZZN11fp_specific9float_mapESt8functionIFffEESt6vectorIfSaIfEEENUlS5_fE_C2ERKS6_, .-_ZZN11fp_specific9float_mapESt8functionIFffEESt6vectorIfSaIfEEENUlS5_fE_C2ERKS6_
	.set	_ZZN11fp_specific9float_mapESt8functionIFffEESt6vectorIfSaIfEEENUlS5_fE_C1ERKS6_,_ZZN11fp_specific9float_mapESt8functionIFffEESt6vectorIfSaIfEEENUlS5_fE_C2ERKS6_
	.type	_ZN2fp6reduceIZN11fp_specific9float_mapESt8functionIFffEESt6vectorIfSaIfEEEUlS7_fE_S7_S7_EET1_T_T0_S9_, @function
_ZN2fp6reduceIZN11fp_specific9float_mapESt8functionIFffEESt6vectorIfSaIfEEEUlS7_fE_S7_S7_EET1_T_T0_S9_:
.LFB4508:
	.cfi_startproc
	.cfi_personality 0x9b,DW.ref.__gxx_personality_v0
	.cfi_lsda 0x1b,.LLSDA4508
	pushq	%rbp
	.cfi_def_cfa_offset 16
	.cfi_offset 6, -16
	movq	%rsp, %rbp
	.cfi_def_cfa_register 6
	pushq	%rbx
	subq	$232, %rsp
	.cfi_offset 3, -24
	movq	%rdi, -216(%rbp)
	movq	%rsi, -224(%rbp)
	movq	%rdx, -232(%rbp)
	movq	%rcx, -240(%rbp)
	movq	%fs:40, %rax
	movq	%rax, -24(%rbp)
	xorl	%eax, %eax
	movq	-232(%rbp), %rax
	movq	%rax, %rdi
	call	_ZNKSt6vectorIfSaIfEE4sizeEv
	testq	%rax, %rax
	sete	%al
	testb	%al, %al
	je	.L469
	movq	-240(%rbp), %rdx
	movq	-216(%rbp), %rax
	movq	%rdx, %rsi
	movq	%rax, %rdi
	call	_ZNSt6vectorIfSaIfEEC1EOS1_
	jmp	.L468
.L469:
	leaq	-128(%rbp), %rax
	movq	%rax, -200(%rbp)
	nop
	nop
	movq	-232(%rbp), %rax
	movq	%rax, %rdi
	call	_ZNSt6vectorIfSaIfEE3endEv
	movq	%rax, %rbx
	movq	-232(%rbp), %rax
	movq	%rax, %rdi
	call	_ZNSt6vectorIfSaIfEE5beginEv
	movq	%rax, -96(%rbp)
	leaq	-96(%rbp), %rax
	movl	$1, %esi
	movq	%rax, %rdi
	call	_ZNK9__gnu_cxx17__normal_iteratorIPfSt6vectorIfSaIfEEEplEl
	movq	%rax, %rsi
	leaq	-128(%rbp), %rdx
	leaq	-192(%rbp), %rax
	movq	%rdx, %rcx
	movq	%rbx, %rdx
	movq	%rax, %rdi
.LEHB102:
	call	_ZNSt6vectorIfSaIfEEC1IN9__gnu_cxx17__normal_iteratorIPfS1_EEvEET_S7_RKS0_
.LEHE102:
	nop
	movq	-232(%rbp), %rax
	movl	$0, %esi
	movq	%rax, %rdi
	call	_ZNSt6vectorIfSaIfEEixEm
	movl	(%rax), %ebx
	movq	-240(%rbp), %rdx
	leaq	-160(%rbp), %rax
	movq	%rdx, %rsi
	movq	%rax, %rdi
.LEHB103:
	call	_ZNSt6vectorIfSaIfEEC1ERKS1_
.LEHE103:
	leaq	-128(%rbp), %rax
	leaq	-160(%rbp), %rdx
	movq	-224(%rbp), %rcx
	movd	%ebx, %xmm0
	movq	%rcx, %rsi
	movq	%rax, %rdi
.LEHB104:
	call	_ZZN11fp_specific9float_mapESt8functionIFffEESt6vectorIfSaIfEEENKUlS5_fE_clES5_f
.LEHE104:
	leaq	-192(%rbp), %rdx
	leaq	-96(%rbp), %rax
	movq	%rdx, %rsi
	movq	%rax, %rdi
.LEHB105:
	call	_ZNSt6vectorIfSaIfEEC1ERKS1_
.LEHE105:
	movq	-224(%rbp), %rdx
	leaq	-64(%rbp), %rax
	movq	%rdx, %rsi
	movq	%rax, %rdi
.LEHB106:
	call	_ZZN11fp_specific9float_mapESt8functionIFffEESt6vectorIfSaIfEEENUlS5_fE_C1ERKS6_
.LEHE106:
	movq	-216(%rbp), %rax
	leaq	-128(%rbp), %rcx
	leaq	-96(%rbp), %rdx
	leaq	-64(%rbp), %rsi
	movq	%rax, %rdi
.LEHB107:
	call	_ZN2fp6reduceIZN11fp_specific9float_mapESt8functionIFffEESt6vectorIfSaIfEEEUlS7_fE_S7_S7_EET1_T_T0_S9_
.LEHE107:
	leaq	-64(%rbp), %rax
	movq	%rax, %rdi
	call	_ZZN11fp_specific9float_mapESt8functionIFffEESt6vectorIfSaIfEEENUlS5_fE_D1Ev
	leaq	-96(%rbp), %rax
	movq	%rax, %rdi
	call	_ZNSt6vectorIfSaIfEED1Ev
	leaq	-128(%rbp), %rax
	movq	%rax, %rdi
	call	_ZNSt6vectorIfSaIfEED1Ev
	leaq	-160(%rbp), %rax
	movq	%rax, %rdi
	call	_ZNSt6vectorIfSaIfEED1Ev
	leaq	-192(%rbp), %rax
	movq	%rax, %rdi
	call	_ZNSt6vectorIfSaIfEED1Ev
	jmp	.L468
.L481:
	nop
	movq	-24(%rbp), %rdx
	subq	%fs:40, %rdx
	je	.L473
	call	__stack_chk_fail@PLT
.L473:
	movq	%rax, %rdi
.LEHB108:
	call	_Unwind_Resume@PLT
.L486:
	movq	%rax, %rbx
	leaq	-64(%rbp), %rax
	movq	%rax, %rdi
	call	_ZZN11fp_specific9float_mapESt8functionIFffEESt6vectorIfSaIfEEENUlS5_fE_D1Ev
	jmp	.L475
.L485:
	movq	%rax, %rbx
.L475:
	leaq	-96(%rbp), %rax
	movq	%rax, %rdi
	call	_ZNSt6vectorIfSaIfEED1Ev
	jmp	.L476
.L484:
	movq	%rax, %rbx
.L476:
	leaq	-128(%rbp), %rax
	movq	%rax, %rdi
	call	_ZNSt6vectorIfSaIfEED1Ev
	jmp	.L477
.L483:
	movq	%rax, %rbx
.L477:
	leaq	-160(%rbp), %rax
	movq	%rax, %rdi
	call	_ZNSt6vectorIfSaIfEED1Ev
	jmp	.L478
.L482:
	movq	%rax, %rbx
.L478:
	leaq	-192(%rbp), %rax
	movq	%rax, %rdi
	call	_ZNSt6vectorIfSaIfEED1Ev
	movq	%rbx, %rax
	movq	-24(%rbp), %rdx
	subq	%fs:40, %rdx
	je	.L479
	call	__stack_chk_fail@PLT
.L479:
	movq	%rax, %rdi
	call	_Unwind_Resume@PLT
.LEHE108:
.L468:
	movq	-24(%rbp), %rax
	subq	%fs:40, %rax
	je	.L480
	call	__stack_chk_fail@PLT
.L480:
	movq	-216(%rbp), %rax
	movq	-8(%rbp), %rbx
	leave
	.cfi_def_cfa 7, 8
	ret
	.cfi_endproc
.LFE4508:
	.section	.gcc_except_table
.LLSDA4508:
	.byte	0xff
	.byte	0xff
	.byte	0x1
	.uleb128 .LLSDACSE4508-.LLSDACSB4508
.LLSDACSB4508:
	.uleb128 .LEHB102-.LFB4508
	.uleb128 .LEHE102-.LEHB102
	.uleb128 .L481-.LFB4508
	.uleb128 0
	.uleb128 .LEHB103-.LFB4508
	.uleb128 .LEHE103-.LEHB103
	.uleb128 .L482-.LFB4508
	.uleb128 0
	.uleb128 .LEHB104-.LFB4508
	.uleb128 .LEHE104-.LEHB104
	.uleb128 .L483-.LFB4508
	.uleb128 0
	.uleb128 .LEHB105-.LFB4508
	.uleb128 .LEHE105-.LEHB105
	.uleb128 .L484-.LFB4508
	.uleb128 0
	.uleb128 .LEHB106-.LFB4508
	.uleb128 .LEHE106-.LEHB106
	.uleb128 .L485-.LFB4508
	.uleb128 0
	.uleb128 .LEHB107-.LFB4508
	.uleb128 .LEHE107-.LEHB107
	.uleb128 .L486-.LFB4508
	.uleb128 0
	.uleb128 .LEHB108-.LFB4508
	.uleb128 .LEHE108-.LEHB108
	.uleb128 0
	.uleb128 0
.LLSDACSE4508:
	.text
	.size	_ZN2fp6reduceIZN11fp_specific9float_mapESt8functionIFffEESt6vectorIfSaIfEEEUlS7_fE_S7_S7_EET1_T_T0_S9_, .-_ZN2fp6reduceIZN11fp_specific9float_mapESt8functionIFffEESt6vectorIfSaIfEEEUlS7_fE_S7_S7_EET1_T_T0_S9_
	.section	.text._ZNKSt8functionIFbiEEclEi,"axG",@progbits,_ZNKSt8functionIFbiEEclEi,comdat
	.align 2
	.weak	_ZNKSt8functionIFbiEEclEi
	.type	_ZNKSt8functionIFbiEEclEi, @function
_ZNKSt8functionIFbiEEclEi:
.LFB4517:
	.cfi_startproc
	pushq	%rbp
	.cfi_def_cfa_offset 16
	.cfi_offset 6, -16
	movq	%rsp, %rbp
	.cfi_def_cfa_register 6
	pushq	%rbx
	subq	$24, %rsp
	.cfi_offset 3, -24
	movq	%rdi, -24(%rbp)
	movl	%esi, -28(%rbp)
	movq	-24(%rbp), %rax
	movq	%rax, %rdi
	call	_ZNKSt14_Function_base8_M_emptyEv
	testb	%al, %al
	je	.L488
	call	_ZSt25__throw_bad_function_callv@PLT
.L488:
	movq	-24(%rbp), %rax
	movq	24(%rax), %rbx
	leaq	-28(%rbp), %rax
	movq	%rax, %rdi
	call	_ZSt7forwardIiEOT_RNSt16remove_referenceIS0_E4typeE
	movq	%rax, %rdx
	movq	-24(%rbp), %rax
	movq	%rdx, %rsi
	movq	%rax, %rdi
	call	*%rbx
	movq	-8(%rbp), %rbx
	leave
	.cfi_def_cfa 7, 8
	ret
	.cfi_endproc
.LFE4517:
	.size	_ZNKSt8functionIFbiEEclEi, .-_ZNKSt8functionIFbiEEclEi
	.section	.text._ZNSt6vectorIiSaIiEE9push_backERKi,"axG",@progbits,_ZNSt6vectorIiSaIiEE9push_backERKi,comdat
	.align 2
	.weak	_ZNSt6vectorIiSaIiEE9push_backERKi
	.type	_ZNSt6vectorIiSaIiEE9push_backERKi, @function
_ZNSt6vectorIiSaIiEE9push_backERKi:
.LFB4518:
	.cfi_startproc
	pushq	%rbp
	.cfi_def_cfa_offset 16
	.cfi_offset 6, -16
	movq	%rsp, %rbp
	.cfi_def_cfa_register 6
	subq	$48, %rsp
	movq	%rdi, -40(%rbp)
	movq	%rsi, -48(%rbp)
	movq	-40(%rbp), %rax
	movq	8(%rax), %rdx
	movq	-40(%rbp), %rax
	movq	16(%rax), %rax
	cmpq	%rax, %rdx
	je	.L491
	movq	-40(%rbp), %rax
	movq	8(%rax), %rax
	movq	-40(%rbp), %rdx
	movq	%rdx, -24(%rbp)
	movq	%rax, -16(%rbp)
	movq	-48(%rbp), %rax
	movq	%rax, -8(%rbp)
	movq	-8(%rbp), %rax
	movq	%rax, %rdi
	call	_ZSt7forwardIRKiEOT_RNSt16remove_referenceIS2_E4typeE
	movq	%rax, %rdx
	movq	-16(%rbp), %rax
	movq	%rdx, %rsi
	movq	%rax, %rdi
	call	_ZSt12construct_atIiJRKiEEDTgsnwcvPvLi0E_T_pispcl7declvalIT0_EEEEPS3_DpOS4_
	nop
	movq	-40(%rbp), %rax
	movq	8(%rax), %rax
	leaq	4(%rax), %rdx
	movq	-40(%rbp), %rax
	movq	%rdx, 8(%rax)
	jmp	.L493
.L491:
	movq	-40(%rbp), %rax
	movq	%rax, %rdi
	call	_ZNSt6vectorIiSaIiEE3endEv
	movq	%rax, %rcx
	movq	-48(%rbp), %rdx
	movq	-40(%rbp), %rax
	movq	%rcx, %rsi
	movq	%rax, %rdi
	call	_ZNSt6vectorIiSaIiEE17_M_realloc_insertIJRKiEEEvN9__gnu_cxx17__normal_iteratorIPiS1_EEDpOT_
.L493:
	nop
	leave
	.cfi_def_cfa 7, 8
	ret
	.cfi_endproc
.LFE4518:
	.size	_ZNSt6vectorIiSaIiEE9push_backERKi, .-_ZNSt6vectorIiSaIiEE9push_backERKi
	.section	.text._ZNSt8functionIFbiEEC2ERKS1_,"axG",@progbits,_ZNSt8functionIFbiEEC5ERKS1_,comdat
	.align 2
	.weak	_ZNSt8functionIFbiEEC2ERKS1_
	.type	_ZNSt8functionIFbiEEC2ERKS1_, @function
_ZNSt8functionIFbiEEC2ERKS1_:
.LFB4521:
	.cfi_startproc
	.cfi_personality 0x9b,DW.ref.__gxx_personality_v0
	.cfi_lsda 0x1b,.LLSDA4521
	pushq	%rbp
	.cfi_def_cfa_offset 16
	.cfi_offset 6, -16
	movq	%rsp, %rbp
	.cfi_def_cfa_register 6
	pushq	%rbx
	subq	$24, %rsp
	.cfi_offset 3, -24
	movq	%rdi, -24(%rbp)
	movq	%rsi, -32(%rbp)
	movq	-24(%rbp), %rax
	pxor	%xmm0, %xmm0
	movups	%xmm0, (%rax)
	movq	%xmm0, 16(%rax)
	movq	-24(%rbp), %rax
	movq	%rax, %rdi
	call	_ZNSt14_Function_baseC2Ev
	movq	-24(%rbp), %rax
	movq	$0, 24(%rax)
	movq	-32(%rbp), %rax
	movq	%rax, %rdi
	call	_ZNKSt8functionIFbiEEcvbEv
	testb	%al, %al
	je	.L498
	movq	-32(%rbp), %rax
	movq	16(%rax), %r8
	movq	-32(%rbp), %rcx
	movq	-24(%rbp), %rax
	movl	$2, %edx
	movq	%rcx, %rsi
	movq	%rax, %rdi
.LEHB109:
	call	*%r8
.LEHE109:
	movq	-32(%rbp), %rax
	movq	24(%rax), %rdx
	movq	-24(%rbp), %rax
	movq	%rdx, 24(%rax)
	movq	-32(%rbp), %rax
	movq	16(%rax), %rdx
	movq	-24(%rbp), %rax
	movq	%rdx, 16(%rax)
	jmp	.L498
.L497:
	movq	%rax, %rbx
	movq	-24(%rbp), %rax
	movq	%rax, %rdi
	call	_ZNSt14_Function_baseD2Ev
	movq	%rbx, %rax
	movq	%rax, %rdi
.LEHB110:
	call	_Unwind_Resume@PLT
.LEHE110:
.L498:
	nop
	movq	-8(%rbp), %rbx
	leave
	.cfi_def_cfa 7, 8
	ret
	.cfi_endproc
.LFE4521:
	.section	.gcc_except_table
.LLSDA4521:
	.byte	0xff
	.byte	0xff
	.byte	0x1
	.uleb128 .LLSDACSE4521-.LLSDACSB4521
.LLSDACSB4521:
	.uleb128 .LEHB109-.LFB4521
	.uleb128 .LEHE109-.LEHB109
	.uleb128 .L497-.LFB4521
	.uleb128 0
	.uleb128 .LEHB110-.LFB4521
	.uleb128 .LEHE110-.LEHB110
	.uleb128 0
	.uleb128 0
.LLSDACSE4521:
	.section	.text._ZNSt8functionIFbiEEC2ERKS1_,"axG",@progbits,_ZNSt8functionIFbiEEC5ERKS1_,comdat
	.size	_ZNSt8functionIFbiEEC2ERKS1_, .-_ZNSt8functionIFbiEEC2ERKS1_
	.weak	_ZNSt8functionIFbiEEC1ERKS1_
	.set	_ZNSt8functionIFbiEEC1ERKS1_,_ZNSt8functionIFbiEEC2ERKS1_
	.text
	.align 2
	.type	_ZZN11fp_specific10int_filterESt8functionIFbiEESt6vectorIiSaIiEEENUlS5_iE_C2ERKS6_, @function
_ZZN11fp_specific10int_filterESt8functionIFbiEESt6vectorIiSaIiEEENUlS5_iE_C2ERKS6_:
.LFB4525:
	.cfi_startproc
	pushq	%rbp
	.cfi_def_cfa_offset 16
	.cfi_offset 6, -16
	movq	%rsp, %rbp
	.cfi_def_cfa_register 6
	subq	$16, %rsp
	movq	%rdi, -8(%rbp)
	movq	%rsi, -16(%rbp)
	movq	-8(%rbp), %rax
	movq	-16(%rbp), %rdx
	movq	%rdx, %rsi
	movq	%rax, %rdi
	call	_ZNSt8functionIFbiEEC1ERKS1_
	nop
	leave
	.cfi_def_cfa 7, 8
	ret
	.cfi_endproc
.LFE4525:
	.size	_ZZN11fp_specific10int_filterESt8functionIFbiEESt6vectorIiSaIiEEENUlS5_iE_C2ERKS6_, .-_ZZN11fp_specific10int_filterESt8functionIFbiEESt6vectorIiSaIiEEENUlS5_iE_C2ERKS6_
	.set	_ZZN11fp_specific10int_filterESt8functionIFbiEESt6vectorIiSaIiEEENUlS5_iE_C1ERKS6_,_ZZN11fp_specific10int_filterESt8functionIFbiEESt6vectorIiSaIiEEENUlS5_iE_C2ERKS6_
	.type	_ZN2fp6reduceIZN11fp_specific10int_filterESt8functionIFbiEESt6vectorIiSaIiEEEUlS7_iE_S7_S7_EET1_T_T0_S9_, @function
_ZN2fp6reduceIZN11fp_specific10int_filterESt8functionIFbiEESt6vectorIiSaIiEEEUlS7_iE_S7_S7_EET1_T_T0_S9_:
.LFB4523:
	.cfi_startproc
	.cfi_personality 0x9b,DW.ref.__gxx_personality_v0
	.cfi_lsda 0x1b,.LLSDA4523
	pushq	%rbp
	.cfi_def_cfa_offset 16
	.cfi_offset 6, -16
	movq	%rsp, %rbp
	.cfi_def_cfa_register 6
	pushq	%rbx
	subq	$232, %rsp
	.cfi_offset 3, -24
	movq	%rdi, -216(%rbp)
	movq	%rsi, -224(%rbp)
	movq	%rdx, -232(%rbp)
	movq	%rcx, -240(%rbp)
	movq	%fs:40, %rax
	movq	%rax, -24(%rbp)
	xorl	%eax, %eax
	movq	-232(%rbp), %rax
	movq	%rax, %rdi
	call	_ZNKSt6vectorIiSaIiEE4sizeEv
	testq	%rax, %rax
	sete	%al
	testb	%al, %al
	je	.L501
	movq	-240(%rbp), %rdx
	movq	-216(%rbp), %rax
	movq	%rdx, %rsi
	movq	%rax, %rdi
	call	_ZNSt6vectorIiSaIiEEC1EOS1_
	jmp	.L500
.L501:
	leaq	-128(%rbp), %rax
	movq	%rax, -200(%rbp)
	nop
	nop
	movq	-232(%rbp), %rax
	movq	%rax, %rdi
	call	_ZNSt6vectorIiSaIiEE3endEv
	movq	%rax, %rbx
	movq	-232(%rbp), %rax
	movq	%rax, %rdi
	call	_ZNSt6vectorIiSaIiEE5beginEv
	movq	%rax, -96(%rbp)
	leaq	-96(%rbp), %rax
	movl	$1, %esi
	movq	%rax, %rdi
	call	_ZNK9__gnu_cxx17__normal_iteratorIPiSt6vectorIiSaIiEEEplEl
	movq	%rax, %rsi
	leaq	-128(%rbp), %rdx
	leaq	-192(%rbp), %rax
	movq	%rdx, %rcx
	movq	%rbx, %rdx
	movq	%rax, %rdi
.LEHB111:
	call	_ZNSt6vectorIiSaIiEEC1IN9__gnu_cxx17__normal_iteratorIPiS1_EEvEET_S7_RKS0_
.LEHE111:
	nop
	movq	-232(%rbp), %rax
	movl	$0, %esi
	movq	%rax, %rdi
	call	_ZNSt6vectorIiSaIiEEixEm
	movl	(%rax), %ebx
	movq	-240(%rbp), %rdx
	leaq	-160(%rbp), %rax
	movq	%rdx, %rsi
	movq	%rax, %rdi
.LEHB112:
	call	_ZNSt6vectorIiSaIiEEC1ERKS1_
.LEHE112:
	leaq	-128(%rbp), %rax
	leaq	-160(%rbp), %rdx
	movq	-224(%rbp), %rsi
	movl	%ebx, %ecx
	movq	%rax, %rdi
.LEHB113:
	call	_ZZN11fp_specific10int_filterESt8functionIFbiEESt6vectorIiSaIiEEENKUlS5_iE_clES5_i
.LEHE113:
	leaq	-192(%rbp), %rdx
	leaq	-96(%rbp), %rax
	movq	%rdx, %rsi
	movq	%rax, %rdi
.LEHB114:
	call	_ZNSt6vectorIiSaIiEEC1ERKS1_
.LEHE114:
	movq	-224(%rbp), %rdx
	leaq	-64(%rbp), %rax
	movq	%rdx, %rsi
	movq	%rax, %rdi
.LEHB115:
	call	_ZZN11fp_specific10int_filterESt8functionIFbiEESt6vectorIiSaIiEEENUlS5_iE_C1ERKS6_
.LEHE115:
	movq	-216(%rbp), %rax
	leaq	-128(%rbp), %rcx
	leaq	-96(%rbp), %rdx
	leaq	-64(%rbp), %rsi
	movq	%rax, %rdi
.LEHB116:
	call	_ZN2fp6reduceIZN11fp_specific10int_filterESt8functionIFbiEESt6vectorIiSaIiEEEUlS7_iE_S7_S7_EET1_T_T0_S9_
.LEHE116:
	leaq	-64(%rbp), %rax
	movq	%rax, %rdi
	call	_ZZN11fp_specific10int_filterESt8functionIFbiEESt6vectorIiSaIiEEENUlS5_iE_D1Ev
	leaq	-96(%rbp), %rax
	movq	%rax, %rdi
	call	_ZNSt6vectorIiSaIiEED1Ev
	leaq	-128(%rbp), %rax
	movq	%rax, %rdi
	call	_ZNSt6vectorIiSaIiEED1Ev
	leaq	-160(%rbp), %rax
	movq	%rax, %rdi
	call	_ZNSt6vectorIiSaIiEED1Ev
	leaq	-192(%rbp), %rax
	movq	%rax, %rdi
	call	_ZNSt6vectorIiSaIiEED1Ev
	jmp	.L500
.L513:
	nop
	movq	-24(%rbp), %rdx
	subq	%fs:40, %rdx
	je	.L505
	call	__stack_chk_fail@PLT
.L505:
	movq	%rax, %rdi
.LEHB117:
	call	_Unwind_Resume@PLT
.L518:
	movq	%rax, %rbx
	leaq	-64(%rbp), %rax
	movq	%rax, %rdi
	call	_ZZN11fp_specific10int_filterESt8functionIFbiEESt6vectorIiSaIiEEENUlS5_iE_D1Ev
	jmp	.L507
.L517:
	movq	%rax, %rbx
.L507:
	leaq	-96(%rbp), %rax
	movq	%rax, %rdi
	call	_ZNSt6vectorIiSaIiEED1Ev
	jmp	.L508
.L516:
	movq	%rax, %rbx
.L508:
	leaq	-128(%rbp), %rax
	movq	%rax, %rdi
	call	_ZNSt6vectorIiSaIiEED1Ev
	jmp	.L509
.L515:
	movq	%rax, %rbx
.L509:
	leaq	-160(%rbp), %rax
	movq	%rax, %rdi
	call	_ZNSt6vectorIiSaIiEED1Ev
	jmp	.L510
.L514:
	movq	%rax, %rbx
.L510:
	leaq	-192(%rbp), %rax
	movq	%rax, %rdi
	call	_ZNSt6vectorIiSaIiEED1Ev
	movq	%rbx, %rax
	movq	-24(%rbp), %rdx
	subq	%fs:40, %rdx
	je	.L511
	call	__stack_chk_fail@PLT
.L511:
	movq	%rax, %rdi
	call	_Unwind_Resume@PLT
.LEHE117:
.L500:
	movq	-24(%rbp), %rax
	subq	%fs:40, %rax
	je	.L512
	call	__stack_chk_fail@PLT
.L512:
	movq	-216(%rbp), %rax
	movq	-8(%rbp), %rbx
	leave
	.cfi_def_cfa 7, 8
	ret
	.cfi_endproc
.LFE4523:
	.section	.gcc_except_table
.LLSDA4523:
	.byte	0xff
	.byte	0xff
	.byte	0x1
	.uleb128 .LLSDACSE4523-.LLSDACSB4523
.LLSDACSB4523:
	.uleb128 .LEHB111-.LFB4523
	.uleb128 .LEHE111-.LEHB111
	.uleb128 .L513-.LFB4523
	.uleb128 0
	.uleb128 .LEHB112-.LFB4523
	.uleb128 .LEHE112-.LEHB112
	.uleb128 .L514-.LFB4523
	.uleb128 0
	.uleb128 .LEHB113-.LFB4523
	.uleb128 .LEHE113-.LEHB113
	.uleb128 .L515-.LFB4523
	.uleb128 0
	.uleb128 .LEHB114-.LFB4523
	.uleb128 .LEHE114-.LEHB114
	.uleb128 .L516-.LFB4523
	.uleb128 0
	.uleb128 .LEHB115-.LFB4523
	.uleb128 .LEHE115-.LEHB115
	.uleb128 .L517-.LFB4523
	.uleb128 0
	.uleb128 .LEHB116-.LFB4523
	.uleb128 .LEHE116-.LEHB116
	.uleb128 .L518-.LFB4523
	.uleb128 0
	.uleb128 .LEHB117-.LFB4523
	.uleb128 .LEHE117-.LEHB117
	.uleb128 0
	.uleb128 0
.LLSDACSE4523:
	.text
	.size	_ZN2fp6reduceIZN11fp_specific10int_filterESt8functionIFbiEESt6vectorIiSaIiEEEUlS7_iE_S7_S7_EET1_T_T0_S9_, .-_ZN2fp6reduceIZN11fp_specific10int_filterESt8functionIFbiEESt6vectorIiSaIiEEEUlS7_iE_S7_S7_EET1_T_T0_S9_
	.section	.text._ZNKSt8functionIFblEEclEl,"axG",@progbits,_ZNKSt8functionIFblEEclEl,comdat
	.align 2
	.weak	_ZNKSt8functionIFblEEclEl
	.type	_ZNKSt8functionIFblEEclEl, @function
_ZNKSt8functionIFblEEclEl:
.LFB4527:
	.cfi_startproc
	pushq	%rbp
	.cfi_def_cfa_offset 16
	.cfi_offset 6, -16
	movq	%rsp, %rbp
	.cfi_def_cfa_register 6
	pushq	%rbx
	subq	$24, %rsp
	.cfi_offset 3, -24
	movq	%rdi, -24(%rbp)
	movq	%rsi, -32(%rbp)
	movq	-24(%rbp), %rax
	movq	%rax, %rdi
	call	_ZNKSt14_Function_base8_M_emptyEv
	testb	%al, %al
	je	.L520
	call	_ZSt25__throw_bad_function_callv@PLT
.L520:
	movq	-24(%rbp), %rax
	movq	24(%rax), %rbx
	leaq	-32(%rbp), %rax
	movq	%rax, %rdi
	call	_ZSt7forwardIlEOT_RNSt16remove_referenceIS0_E4typeE
	movq	%rax, %rdx
	movq	-24(%rbp), %rax
	movq	%rdx, %rsi
	movq	%rax, %rdi
	call	*%rbx
	movq	-8(%rbp), %rbx
	leave
	.cfi_def_cfa 7, 8
	ret
	.cfi_endproc
.LFE4527:
	.size	_ZNKSt8functionIFblEEclEl, .-_ZNKSt8functionIFblEEclEl
	.section	.text._ZNSt6vectorIlSaIlEE9push_backERKl,"axG",@progbits,_ZNSt6vectorIlSaIlEE9push_backERKl,comdat
	.align 2
	.weak	_ZNSt6vectorIlSaIlEE9push_backERKl
	.type	_ZNSt6vectorIlSaIlEE9push_backERKl, @function
_ZNSt6vectorIlSaIlEE9push_backERKl:
.LFB4528:
	.cfi_startproc
	pushq	%rbp
	.cfi_def_cfa_offset 16
	.cfi_offset 6, -16
	movq	%rsp, %rbp
	.cfi_def_cfa_register 6
	subq	$48, %rsp
	movq	%rdi, -40(%rbp)
	movq	%rsi, -48(%rbp)
	movq	-40(%rbp), %rax
	movq	8(%rax), %rdx
	movq	-40(%rbp), %rax
	movq	16(%rax), %rax
	cmpq	%rax, %rdx
	je	.L523
	movq	-40(%rbp), %rax
	movq	8(%rax), %rax
	movq	-40(%rbp), %rdx
	movq	%rdx, -24(%rbp)
	movq	%rax, -16(%rbp)
	movq	-48(%rbp), %rax
	movq	%rax, -8(%rbp)
	movq	-8(%rbp), %rax
	movq	%rax, %rdi
	call	_ZSt7forwardIRKlEOT_RNSt16remove_referenceIS2_E4typeE
	movq	%rax, %rdx
	movq	-16(%rbp), %rax
	movq	%rdx, %rsi
	movq	%rax, %rdi
	call	_ZSt12construct_atIlJRKlEEDTgsnwcvPvLi0E_T_pispcl7declvalIT0_EEEEPS3_DpOS4_
	nop
	movq	-40(%rbp), %rax
	movq	8(%rax), %rax
	leaq	8(%rax), %rdx
	movq	-40(%rbp), %rax
	movq	%rdx, 8(%rax)
	jmp	.L525
.L523:
	movq	-40(%rbp), %rax
	movq	%rax, %rdi
	call	_ZNSt6vectorIlSaIlEE3endEv
	movq	%rax, %rcx
	movq	-48(%rbp), %rdx
	movq	-40(%rbp), %rax
	movq	%rcx, %rsi
	movq	%rax, %rdi
	call	_ZNSt6vectorIlSaIlEE17_M_realloc_insertIJRKlEEEvN9__gnu_cxx17__normal_iteratorIPlS1_EEDpOT_
.L525:
	nop
	leave
	.cfi_def_cfa 7, 8
	ret
	.cfi_endproc
.LFE4528:
	.size	_ZNSt6vectorIlSaIlEE9push_backERKl, .-_ZNSt6vectorIlSaIlEE9push_backERKl
	.section	.text._ZNSt8functionIFblEEC2ERKS1_,"axG",@progbits,_ZNSt8functionIFblEEC5ERKS1_,comdat
	.align 2
	.weak	_ZNSt8functionIFblEEC2ERKS1_
	.type	_ZNSt8functionIFblEEC2ERKS1_, @function
_ZNSt8functionIFblEEC2ERKS1_:
.LFB4530:
	.cfi_startproc
	.cfi_personality 0x9b,DW.ref.__gxx_personality_v0
	.cfi_lsda 0x1b,.LLSDA4530
	pushq	%rbp
	.cfi_def_cfa_offset 16
	.cfi_offset 6, -16
	movq	%rsp, %rbp
	.cfi_def_cfa_register 6
	pushq	%rbx
	subq	$24, %rsp
	.cfi_offset 3, -24
	movq	%rdi, -24(%rbp)
	movq	%rsi, -32(%rbp)
	movq	-24(%rbp), %rax
	pxor	%xmm0, %xmm0
	movups	%xmm0, (%rax)
	movq	%xmm0, 16(%rax)
	movq	-24(%rbp), %rax
	movq	%rax, %rdi
	call	_ZNSt14_Function_baseC2Ev
	movq	-24(%rbp), %rax
	movq	$0, 24(%rax)
	movq	-32(%rbp), %rax
	movq	%rax, %rdi
	call	_ZNKSt8functionIFblEEcvbEv
	testb	%al, %al
	je	.L530
	movq	-32(%rbp), %rax
	movq	16(%rax), %r8
	movq	-32(%rbp), %rcx
	movq	-24(%rbp), %rax
	movl	$2, %edx
	movq	%rcx, %rsi
	movq	%rax, %rdi
.LEHB118:
	call	*%r8
.LEHE118:
	movq	-32(%rbp), %rax
	movq	24(%rax), %rdx
	movq	-24(%rbp), %rax
	movq	%rdx, 24(%rax)
	movq	-32(%rbp), %rax
	movq	16(%rax), %rdx
	movq	-24(%rbp), %rax
	movq	%rdx, 16(%rax)
	jmp	.L530
.L529:
	movq	%rax, %rbx
	movq	-24(%rbp), %rax
	movq	%rax, %rdi
	call	_ZNSt14_Function_baseD2Ev
	movq	%rbx, %rax
	movq	%rax, %rdi
.LEHB119:
	call	_Unwind_Resume@PLT
.LEHE119:
.L530:
	nop
	movq	-8(%rbp), %rbx
	leave
	.cfi_def_cfa 7, 8
	ret
	.cfi_endproc
.LFE4530:
	.section	.gcc_except_table
.LLSDA4530:
	.byte	0xff
	.byte	0xff
	.byte	0x1
	.uleb128 .LLSDACSE4530-.LLSDACSB4530
.LLSDACSB4530:
	.uleb128 .LEHB118-.LFB4530
	.uleb128 .LEHE118-.LEHB118
	.uleb128 .L529-.LFB4530
	.uleb128 0
	.uleb128 .LEHB119-.LFB4530
	.uleb128 .LEHE119-.LEHB119
	.uleb128 0
	.uleb128 0
.LLSDACSE4530:
	.section	.text._ZNSt8functionIFblEEC2ERKS1_,"axG",@progbits,_ZNSt8functionIFblEEC5ERKS1_,comdat
	.size	_ZNSt8functionIFblEEC2ERKS1_, .-_ZNSt8functionIFblEEC2ERKS1_
	.weak	_ZNSt8functionIFblEEC1ERKS1_
	.set	_ZNSt8functionIFblEEC1ERKS1_,_ZNSt8functionIFblEEC2ERKS1_
	.text
	.align 2
	.type	_ZZN11fp_specific11long_filterESt8functionIFblEESt6vectorIlSaIlEEENUlS5_lE_C2ERKS6_, @function
_ZZN11fp_specific11long_filterESt8functionIFblEESt6vectorIlSaIlEEENUlS5_lE_C2ERKS6_:
.LFB4534:
	.cfi_startproc
	pushq	%rbp
	.cfi_def_cfa_offset 16
	.cfi_offset 6, -16
	movq	%rsp, %rbp
	.cfi_def_cfa_register 6
	subq	$16, %rsp
	movq	%rdi, -8(%rbp)
	movq	%rsi, -16(%rbp)
	movq	-8(%rbp), %rax
	movq	-16(%rbp), %rdx
	movq	%rdx, %rsi
	movq	%rax, %rdi
	call	_ZNSt8functionIFblEEC1ERKS1_
	nop
	leave
	.cfi_def_cfa 7, 8
	ret
	.cfi_endproc
.LFE4534:
	.size	_ZZN11fp_specific11long_filterESt8functionIFblEESt6vectorIlSaIlEEENUlS5_lE_C2ERKS6_, .-_ZZN11fp_specific11long_filterESt8functionIFblEESt6vectorIlSaIlEEENUlS5_lE_C2ERKS6_
	.set	_ZZN11fp_specific11long_filterESt8functionIFblEESt6vectorIlSaIlEEENUlS5_lE_C1ERKS6_,_ZZN11fp_specific11long_filterESt8functionIFblEESt6vectorIlSaIlEEENUlS5_lE_C2ERKS6_
	.type	_ZN2fp6reduceIZN11fp_specific11long_filterESt8functionIFblEESt6vectorIlSaIlEEEUlS7_lE_S7_S7_EET1_T_T0_S9_, @function
_ZN2fp6reduceIZN11fp_specific11long_filterESt8functionIFblEESt6vectorIlSaIlEEEUlS7_lE_S7_S7_EET1_T_T0_S9_:
.LFB4532:
	.cfi_startproc
	.cfi_personality 0x9b,DW.ref.__gxx_personality_v0
	.cfi_lsda 0x1b,.LLSDA4532
	pushq	%rbp
	.cfi_def_cfa_offset 16
	.cfi_offset 6, -16
	movq	%rsp, %rbp
	.cfi_def_cfa_register 6
	pushq	%rbx
	subq	$232, %rsp
	.cfi_offset 3, -24
	movq	%rdi, -216(%rbp)
	movq	%rsi, -224(%rbp)
	movq	%rdx, -232(%rbp)
	movq	%rcx, -240(%rbp)
	movq	%fs:40, %rax
	movq	%rax, -24(%rbp)
	xorl	%eax, %eax
	movq	-232(%rbp), %rax
	movq	%rax, %rdi
	call	_ZNKSt6vectorIlSaIlEE4sizeEv
	testq	%rax, %rax
	sete	%al
	testb	%al, %al
	je	.L533
	movq	-240(%rbp), %rdx
	movq	-216(%rbp), %rax
	movq	%rdx, %rsi
	movq	%rax, %rdi
	call	_ZNSt6vectorIlSaIlEEC1EOS1_
	jmp	.L532
.L533:
	leaq	-128(%rbp), %rax
	movq	%rax, -200(%rbp)
	nop
	nop
	movq	-232(%rbp), %rax
	movq	%rax, %rdi
	call	_ZNSt6vectorIlSaIlEE3endEv
	movq	%rax, %rbx
	movq	-232(%rbp), %rax
	movq	%rax, %rdi
	call	_ZNSt6vectorIlSaIlEE5beginEv
	movq	%rax, -96(%rbp)
	leaq	-96(%rbp), %rax
	movl	$1, %esi
	movq	%rax, %rdi
	call	_ZNK9__gnu_cxx17__normal_iteratorIPlSt6vectorIlSaIlEEEplEl
	movq	%rax, %rsi
	leaq	-128(%rbp), %rdx
	leaq	-192(%rbp), %rax
	movq	%rdx, %rcx
	movq	%rbx, %rdx
	movq	%rax, %rdi
.LEHB120:
	call	_ZNSt6vectorIlSaIlEEC1IN9__gnu_cxx17__normal_iteratorIPlS1_EEvEET_S7_RKS0_
.LEHE120:
	nop
	movq	-232(%rbp), %rax
	movl	$0, %esi
	movq	%rax, %rdi
	call	_ZNSt6vectorIlSaIlEEixEm
	movq	(%rax), %rbx
	movq	-240(%rbp), %rdx
	leaq	-160(%rbp), %rax
	movq	%rdx, %rsi
	movq	%rax, %rdi
.LEHB121:
	call	_ZNSt6vectorIlSaIlEEC1ERKS1_
.LEHE121:
	leaq	-128(%rbp), %rax
	leaq	-160(%rbp), %rdx
	movq	-224(%rbp), %rsi
	movq	%rbx, %rcx
	movq	%rax, %rdi
.LEHB122:
	call	_ZZN11fp_specific11long_filterESt8functionIFblEESt6vectorIlSaIlEEENKUlS5_lE_clES5_l
.LEHE122:
	leaq	-192(%rbp), %rdx
	leaq	-96(%rbp), %rax
	movq	%rdx, %rsi
	movq	%rax, %rdi
.LEHB123:
	call	_ZNSt6vectorIlSaIlEEC1ERKS1_
.LEHE123:
	movq	-224(%rbp), %rdx
	leaq	-64(%rbp), %rax
	movq	%rdx, %rsi
	movq	%rax, %rdi
.LEHB124:
	call	_ZZN11fp_specific11long_filterESt8functionIFblEESt6vectorIlSaIlEEENUlS5_lE_C1ERKS6_
.LEHE124:
	movq	-216(%rbp), %rax
	leaq	-128(%rbp), %rcx
	leaq	-96(%rbp), %rdx
	leaq	-64(%rbp), %rsi
	movq	%rax, %rdi
.LEHB125:
	call	_ZN2fp6reduceIZN11fp_specific11long_filterESt8functionIFblEESt6vectorIlSaIlEEEUlS7_lE_S7_S7_EET1_T_T0_S9_
.LEHE125:
	leaq	-64(%rbp), %rax
	movq	%rax, %rdi
	call	_ZZN11fp_specific11long_filterESt8functionIFblEESt6vectorIlSaIlEEENUlS5_lE_D1Ev
	leaq	-96(%rbp), %rax
	movq	%rax, %rdi
	call	_ZNSt6vectorIlSaIlEED1Ev
	leaq	-128(%rbp), %rax
	movq	%rax, %rdi
	call	_ZNSt6vectorIlSaIlEED1Ev
	leaq	-160(%rbp), %rax
	movq	%rax, %rdi
	call	_ZNSt6vectorIlSaIlEED1Ev
	leaq	-192(%rbp), %rax
	movq	%rax, %rdi
	call	_ZNSt6vectorIlSaIlEED1Ev
	jmp	.L532
.L545:
	nop
	movq	-24(%rbp), %rdx
	subq	%fs:40, %rdx
	je	.L537
	call	__stack_chk_fail@PLT
.L537:
	movq	%rax, %rdi
.LEHB126:
	call	_Unwind_Resume@PLT
.L550:
	movq	%rax, %rbx
	leaq	-64(%rbp), %rax
	movq	%rax, %rdi
	call	_ZZN11fp_specific11long_filterESt8functionIFblEESt6vectorIlSaIlEEENUlS5_lE_D1Ev
	jmp	.L539
.L549:
	movq	%rax, %rbx
.L539:
	leaq	-96(%rbp), %rax
	movq	%rax, %rdi
	call	_ZNSt6vectorIlSaIlEED1Ev
	jmp	.L540
.L548:
	movq	%rax, %rbx
.L540:
	leaq	-128(%rbp), %rax
	movq	%rax, %rdi
	call	_ZNSt6vectorIlSaIlEED1Ev
	jmp	.L541
.L547:
	movq	%rax, %rbx
.L541:
	leaq	-160(%rbp), %rax
	movq	%rax, %rdi
	call	_ZNSt6vectorIlSaIlEED1Ev
	jmp	.L542
.L546:
	movq	%rax, %rbx
.L542:
	leaq	-192(%rbp), %rax
	movq	%rax, %rdi
	call	_ZNSt6vectorIlSaIlEED1Ev
	movq	%rbx, %rax
	movq	-24(%rbp), %rdx
	subq	%fs:40, %rdx
	je	.L543
	call	__stack_chk_fail@PLT
.L543:
	movq	%rax, %rdi
	call	_Unwind_Resume@PLT
.LEHE126:
.L532:
	movq	-24(%rbp), %rax
	subq	%fs:40, %rax
	je	.L544
	call	__stack_chk_fail@PLT
.L544:
	movq	-216(%rbp), %rax
	movq	-8(%rbp), %rbx
	leave
	.cfi_def_cfa 7, 8
	ret
	.cfi_endproc
.LFE4532:
	.section	.gcc_except_table
.LLSDA4532:
	.byte	0xff
	.byte	0xff
	.byte	0x1
	.uleb128 .LLSDACSE4532-.LLSDACSB4532
.LLSDACSB4532:
	.uleb128 .LEHB120-.LFB4532
	.uleb128 .LEHE120-.LEHB120
	.uleb128 .L545-.LFB4532
	.uleb128 0
	.uleb128 .LEHB121-.LFB4532
	.uleb128 .LEHE121-.LEHB121
	.uleb128 .L546-.LFB4532
	.uleb128 0
	.uleb128 .LEHB122-.LFB4532
	.uleb128 .LEHE122-.LEHB122
	.uleb128 .L547-.LFB4532
	.uleb128 0
	.uleb128 .LEHB123-.LFB4532
	.uleb128 .LEHE123-.LEHB123
	.uleb128 .L548-.LFB4532
	.uleb128 0
	.uleb128 .LEHB124-.LFB4532
	.uleb128 .LEHE124-.LEHB124
	.uleb128 .L549-.LFB4532
	.uleb128 0
	.uleb128 .LEHB125-.LFB4532
	.uleb128 .LEHE125-.LEHB125
	.uleb128 .L550-.LFB4532
	.uleb128 0
	.uleb128 .LEHB126-.LFB4532
	.uleb128 .LEHE126-.LEHB126
	.uleb128 0
	.uleb128 0
.LLSDACSE4532:
	.text
	.size	_ZN2fp6reduceIZN11fp_specific11long_filterESt8functionIFblEESt6vectorIlSaIlEEEUlS7_lE_S7_S7_EET1_T_T0_S9_, .-_ZN2fp6reduceIZN11fp_specific11long_filterESt8functionIFblEESt6vectorIlSaIlEEEUlS7_lE_S7_S7_EET1_T_T0_S9_
	.section	.text._ZNKSt8functionIFbdEEclEd,"axG",@progbits,_ZNKSt8functionIFbdEEclEd,comdat
	.align 2
	.weak	_ZNKSt8functionIFbdEEclEd
	.type	_ZNKSt8functionIFbdEEclEd, @function
_ZNKSt8functionIFbdEEclEd:
.LFB4536:
	.cfi_startproc
	pushq	%rbp
	.cfi_def_cfa_offset 16
	.cfi_offset 6, -16
	movq	%rsp, %rbp
	.cfi_def_cfa_register 6
	pushq	%rbx
	subq	$24, %rsp
	.cfi_offset 3, -24
	movq	%rdi, -24(%rbp)
	movsd	%xmm0, -32(%rbp)
	movq	-24(%rbp), %rax
	movq	%rax, %rdi
	call	_ZNKSt14_Function_base8_M_emptyEv
	testb	%al, %al
	je	.L552
	call	_ZSt25__throw_bad_function_callv@PLT
.L552:
	movq	-24(%rbp), %rax
	movq	24(%rax), %rbx
	leaq	-32(%rbp), %rax
	movq	%rax, %rdi
	call	_ZSt7forwardIdEOT_RNSt16remove_referenceIS0_E4typeE
	movq	%rax, %rdx
	movq	-24(%rbp), %rax
	movq	%rdx, %rsi
	movq	%rax, %rdi
	call	*%rbx
	movq	-8(%rbp), %rbx
	leave
	.cfi_def_cfa 7, 8
	ret
	.cfi_endproc
.LFE4536:
	.size	_ZNKSt8functionIFbdEEclEd, .-_ZNKSt8functionIFbdEEclEd
	.section	.text._ZNSt6vectorIdSaIdEE9push_backERKd,"axG",@progbits,_ZNSt6vectorIdSaIdEE9push_backERKd,comdat
	.align 2
	.weak	_ZNSt6vectorIdSaIdEE9push_backERKd
	.type	_ZNSt6vectorIdSaIdEE9push_backERKd, @function
_ZNSt6vectorIdSaIdEE9push_backERKd:
.LFB4537:
	.cfi_startproc
	pushq	%rbp
	.cfi_def_cfa_offset 16
	.cfi_offset 6, -16
	movq	%rsp, %rbp
	.cfi_def_cfa_register 6
	subq	$48, %rsp
	movq	%rdi, -40(%rbp)
	movq	%rsi, -48(%rbp)
	movq	-40(%rbp), %rax
	movq	8(%rax), %rdx
	movq	-40(%rbp), %rax
	movq	16(%rax), %rax
	cmpq	%rax, %rdx
	je	.L555
	movq	-40(%rbp), %rax
	movq	8(%rax), %rax
	movq	-40(%rbp), %rdx
	movq	%rdx, -24(%rbp)
	movq	%rax, -16(%rbp)
	movq	-48(%rbp), %rax
	movq	%rax, -8(%rbp)
	movq	-8(%rbp), %rax
	movq	%rax, %rdi
	call	_ZSt7forwardIRKdEOT_RNSt16remove_referenceIS2_E4typeE
	movq	%rax, %rdx
	movq	-16(%rbp), %rax
	movq	%rdx, %rsi
	movq	%rax, %rdi
	call	_ZSt12construct_atIdJRKdEEDTgsnwcvPvLi0E_T_pispcl7declvalIT0_EEEEPS3_DpOS4_
	nop
	movq	-40(%rbp), %rax
	movq	8(%rax), %rax
	leaq	8(%rax), %rdx
	movq	-40(%rbp), %rax
	movq	%rdx, 8(%rax)
	jmp	.L557
.L555:
	movq	-40(%rbp), %rax
	movq	%rax, %rdi
	call	_ZNSt6vectorIdSaIdEE3endEv
	movq	%rax, %rcx
	movq	-48(%rbp), %rdx
	movq	-40(%rbp), %rax
	movq	%rcx, %rsi
	movq	%rax, %rdi
	call	_ZNSt6vectorIdSaIdEE17_M_realloc_insertIJRKdEEEvN9__gnu_cxx17__normal_iteratorIPdS1_EEDpOT_
.L557:
	nop
	leave
	.cfi_def_cfa 7, 8
	ret
	.cfi_endproc
.LFE4537:
	.size	_ZNSt6vectorIdSaIdEE9push_backERKd, .-_ZNSt6vectorIdSaIdEE9push_backERKd
	.section	.text._ZNSt8functionIFbdEEC2ERKS1_,"axG",@progbits,_ZNSt8functionIFbdEEC5ERKS1_,comdat
	.align 2
	.weak	_ZNSt8functionIFbdEEC2ERKS1_
	.type	_ZNSt8functionIFbdEEC2ERKS1_, @function
_ZNSt8functionIFbdEEC2ERKS1_:
.LFB4540:
	.cfi_startproc
	.cfi_personality 0x9b,DW.ref.__gxx_personality_v0
	.cfi_lsda 0x1b,.LLSDA4540
	pushq	%rbp
	.cfi_def_cfa_offset 16
	.cfi_offset 6, -16
	movq	%rsp, %rbp
	.cfi_def_cfa_register 6
	pushq	%rbx
	subq	$24, %rsp
	.cfi_offset 3, -24
	movq	%rdi, -24(%rbp)
	movq	%rsi, -32(%rbp)
	movq	-24(%rbp), %rax
	pxor	%xmm0, %xmm0
	movups	%xmm0, (%rax)
	movq	%xmm0, 16(%rax)
	movq	-24(%rbp), %rax
	movq	%rax, %rdi
	call	_ZNSt14_Function_baseC2Ev
	movq	-24(%rbp), %rax
	movq	$0, 24(%rax)
	movq	-32(%rbp), %rax
	movq	%rax, %rdi
	call	_ZNKSt8functionIFbdEEcvbEv
	testb	%al, %al
	je	.L562
	movq	-32(%rbp), %rax
	movq	16(%rax), %r8
	movq	-32(%rbp), %rcx
	movq	-24(%rbp), %rax
	movl	$2, %edx
	movq	%rcx, %rsi
	movq	%rax, %rdi
.LEHB127:
	call	*%r8
.LEHE127:
	movq	-32(%rbp), %rax
	movq	24(%rax), %rdx
	movq	-24(%rbp), %rax
	movq	%rdx, 24(%rax)
	movq	-32(%rbp), %rax
	movq	16(%rax), %rdx
	movq	-24(%rbp), %rax
	movq	%rdx, 16(%rax)
	jmp	.L562
.L561:
	movq	%rax, %rbx
	movq	-24(%rbp), %rax
	movq	%rax, %rdi
	call	_ZNSt14_Function_baseD2Ev
	movq	%rbx, %rax
	movq	%rax, %rdi
.LEHB128:
	call	_Unwind_Resume@PLT
.LEHE128:
.L562:
	nop
	movq	-8(%rbp), %rbx
	leave
	.cfi_def_cfa 7, 8
	ret
	.cfi_endproc
.LFE4540:
	.section	.gcc_except_table
.LLSDA4540:
	.byte	0xff
	.byte	0xff
	.byte	0x1
	.uleb128 .LLSDACSE4540-.LLSDACSB4540
.LLSDACSB4540:
	.uleb128 .LEHB127-.LFB4540
	.uleb128 .LEHE127-.LEHB127
	.uleb128 .L561-.LFB4540
	.uleb128 0
	.uleb128 .LEHB128-.LFB4540
	.uleb128 .LEHE128-.LEHB128
	.uleb128 0
	.uleb128 0
.LLSDACSE4540:
	.section	.text._ZNSt8functionIFbdEEC2ERKS1_,"axG",@progbits,_ZNSt8functionIFbdEEC5ERKS1_,comdat
	.size	_ZNSt8functionIFbdEEC2ERKS1_, .-_ZNSt8functionIFbdEEC2ERKS1_
	.weak	_ZNSt8functionIFbdEEC1ERKS1_
	.set	_ZNSt8functionIFbdEEC1ERKS1_,_ZNSt8functionIFbdEEC2ERKS1_
	.text
	.align 2
	.type	_ZZN11fp_specific13double_filterESt8functionIFbdEESt6vectorIdSaIdEEENUlS5_dE_C2ERKS6_, @function
_ZZN11fp_specific13double_filterESt8functionIFbdEESt6vectorIdSaIdEEENUlS5_dE_C2ERKS6_:
.LFB4544:
	.cfi_startproc
	pushq	%rbp
	.cfi_def_cfa_offset 16
	.cfi_offset 6, -16
	movq	%rsp, %rbp
	.cfi_def_cfa_register 6
	subq	$16, %rsp
	movq	%rdi, -8(%rbp)
	movq	%rsi, -16(%rbp)
	movq	-8(%rbp), %rax
	movq	-16(%rbp), %rdx
	movq	%rdx, %rsi
	movq	%rax, %rdi
	call	_ZNSt8functionIFbdEEC1ERKS1_
	nop
	leave
	.cfi_def_cfa 7, 8
	ret
	.cfi_endproc
.LFE4544:
	.size	_ZZN11fp_specific13double_filterESt8functionIFbdEESt6vectorIdSaIdEEENUlS5_dE_C2ERKS6_, .-_ZZN11fp_specific13double_filterESt8functionIFbdEESt6vectorIdSaIdEEENUlS5_dE_C2ERKS6_
	.set	_ZZN11fp_specific13double_filterESt8functionIFbdEESt6vectorIdSaIdEEENUlS5_dE_C1ERKS6_,_ZZN11fp_specific13double_filterESt8functionIFbdEESt6vectorIdSaIdEEENUlS5_dE_C2ERKS6_
	.type	_ZN2fp6reduceIZN11fp_specific13double_filterESt8functionIFbdEESt6vectorIdSaIdEEEUlS7_dE_S7_S7_EET1_T_T0_S9_, @function
_ZN2fp6reduceIZN11fp_specific13double_filterESt8functionIFbdEESt6vectorIdSaIdEEEUlS7_dE_S7_S7_EET1_T_T0_S9_:
.LFB4542:
	.cfi_startproc
	.cfi_personality 0x9b,DW.ref.__gxx_personality_v0
	.cfi_lsda 0x1b,.LLSDA4542
	pushq	%rbp
	.cfi_def_cfa_offset 16
	.cfi_offset 6, -16
	movq	%rsp, %rbp
	.cfi_def_cfa_register 6
	pushq	%rbx
	subq	$232, %rsp
	.cfi_offset 3, -24
	movq	%rdi, -216(%rbp)
	movq	%rsi, -224(%rbp)
	movq	%rdx, -232(%rbp)
	movq	%rcx, -240(%rbp)
	movq	%fs:40, %rax
	movq	%rax, -24(%rbp)
	xorl	%eax, %eax
	movq	-232(%rbp), %rax
	movq	%rax, %rdi
	call	_ZNKSt6vectorIdSaIdEE4sizeEv
	testq	%rax, %rax
	sete	%al
	testb	%al, %al
	je	.L565
	movq	-240(%rbp), %rdx
	movq	-216(%rbp), %rax
	movq	%rdx, %rsi
	movq	%rax, %rdi
	call	_ZNSt6vectorIdSaIdEEC1EOS1_
	jmp	.L564
.L565:
	leaq	-128(%rbp), %rax
	movq	%rax, -200(%rbp)
	nop
	nop
	movq	-232(%rbp), %rax
	movq	%rax, %rdi
	call	_ZNSt6vectorIdSaIdEE3endEv
	movq	%rax, %rbx
	movq	-232(%rbp), %rax
	movq	%rax, %rdi
	call	_ZNSt6vectorIdSaIdEE5beginEv
	movq	%rax, -96(%rbp)
	leaq	-96(%rbp), %rax
	movl	$1, %esi
	movq	%rax, %rdi
	call	_ZNK9__gnu_cxx17__normal_iteratorIPdSt6vectorIdSaIdEEEplEl
	movq	%rax, %rsi
	leaq	-128(%rbp), %rdx
	leaq	-192(%rbp), %rax
	movq	%rdx, %rcx
	movq	%rbx, %rdx
	movq	%rax, %rdi
.LEHB129:
	call	_ZNSt6vectorIdSaIdEEC1IN9__gnu_cxx17__normal_iteratorIPdS1_EEvEET_S7_RKS0_
.LEHE129:
	nop
	movq	-232(%rbp), %rax
	movl	$0, %esi
	movq	%rax, %rdi
	call	_ZNSt6vectorIdSaIdEEixEm
	movq	(%rax), %rbx
	movq	-240(%rbp), %rdx
	leaq	-160(%rbp), %rax
	movq	%rdx, %rsi
	movq	%rax, %rdi
.LEHB130:
	call	_ZNSt6vectorIdSaIdEEC1ERKS1_
.LEHE130:
	leaq	-128(%rbp), %rax
	leaq	-160(%rbp), %rdx
	movq	-224(%rbp), %rcx
	movq	%rbx, %xmm0
	movq	%rcx, %rsi
	movq	%rax, %rdi
.LEHB131:
	call	_ZZN11fp_specific13double_filterESt8functionIFbdEESt6vectorIdSaIdEEENKUlS5_dE_clES5_d
.LEHE131:
	leaq	-192(%rbp), %rdx
	leaq	-96(%rbp), %rax
	movq	%rdx, %rsi
	movq	%rax, %rdi
.LEHB132:
	call	_ZNSt6vectorIdSaIdEEC1ERKS1_
.LEHE132:
	movq	-224(%rbp), %rdx
	leaq	-64(%rbp), %rax
	movq	%rdx, %rsi
	movq	%rax, %rdi
.LEHB133:
	call	_ZZN11fp_specific13double_filterESt8functionIFbdEESt6vectorIdSaIdEEENUlS5_dE_C1ERKS6_
.LEHE133:
	movq	-216(%rbp), %rax
	leaq	-128(%rbp), %rcx
	leaq	-96(%rbp), %rdx
	leaq	-64(%rbp), %rsi
	movq	%rax, %rdi
.LEHB134:
	call	_ZN2fp6reduceIZN11fp_specific13double_filterESt8functionIFbdEESt6vectorIdSaIdEEEUlS7_dE_S7_S7_EET1_T_T0_S9_
.LEHE134:
	leaq	-64(%rbp), %rax
	movq	%rax, %rdi
	call	_ZZN11fp_specific13double_filterESt8functionIFbdEESt6vectorIdSaIdEEENUlS5_dE_D1Ev
	leaq	-96(%rbp), %rax
	movq	%rax, %rdi
	call	_ZNSt6vectorIdSaIdEED1Ev
	leaq	-128(%rbp), %rax
	movq	%rax, %rdi
	call	_ZNSt6vectorIdSaIdEED1Ev
	leaq	-160(%rbp), %rax
	movq	%rax, %rdi
	call	_ZNSt6vectorIdSaIdEED1Ev
	leaq	-192(%rbp), %rax
	movq	%rax, %rdi
	call	_ZNSt6vectorIdSaIdEED1Ev
	jmp	.L564
.L577:
	nop
	movq	-24(%rbp), %rdx
	subq	%fs:40, %rdx
	je	.L569
	call	__stack_chk_fail@PLT
.L569:
	movq	%rax, %rdi
.LEHB135:
	call	_Unwind_Resume@PLT
.L582:
	movq	%rax, %rbx
	leaq	-64(%rbp), %rax
	movq	%rax, %rdi
	call	_ZZN11fp_specific13double_filterESt8functionIFbdEESt6vectorIdSaIdEEENUlS5_dE_D1Ev
	jmp	.L571
.L581:
	movq	%rax, %rbx
.L571:
	leaq	-96(%rbp), %rax
	movq	%rax, %rdi
	call	_ZNSt6vectorIdSaIdEED1Ev
	jmp	.L572
.L580:
	movq	%rax, %rbx
.L572:
	leaq	-128(%rbp), %rax
	movq	%rax, %rdi
	call	_ZNSt6vectorIdSaIdEED1Ev
	jmp	.L573
.L579:
	movq	%rax, %rbx
.L573:
	leaq	-160(%rbp), %rax
	movq	%rax, %rdi
	call	_ZNSt6vectorIdSaIdEED1Ev
	jmp	.L574
.L578:
	movq	%rax, %rbx
.L574:
	leaq	-192(%rbp), %rax
	movq	%rax, %rdi
	call	_ZNSt6vectorIdSaIdEED1Ev
	movq	%rbx, %rax
	movq	-24(%rbp), %rdx
	subq	%fs:40, %rdx
	je	.L575
	call	__stack_chk_fail@PLT
.L575:
	movq	%rax, %rdi
	call	_Unwind_Resume@PLT
.LEHE135:
.L564:
	movq	-24(%rbp), %rax
	subq	%fs:40, %rax
	je	.L576
	call	__stack_chk_fail@PLT
.L576:
	movq	-216(%rbp), %rax
	movq	-8(%rbp), %rbx
	leave
	.cfi_def_cfa 7, 8
	ret
	.cfi_endproc
.LFE4542:
	.section	.gcc_except_table
.LLSDA4542:
	.byte	0xff
	.byte	0xff
	.byte	0x1
	.uleb128 .LLSDACSE4542-.LLSDACSB4542
.LLSDACSB4542:
	.uleb128 .LEHB129-.LFB4542
	.uleb128 .LEHE129-.LEHB129
	.uleb128 .L577-.LFB4542
	.uleb128 0
	.uleb128 .LEHB130-.LFB4542
	.uleb128 .LEHE130-.LEHB130
	.uleb128 .L578-.LFB4542
	.uleb128 0
	.uleb128 .LEHB131-.LFB4542
	.uleb128 .LEHE131-.LEHB131
	.uleb128 .L579-.LFB4542
	.uleb128 0
	.uleb128 .LEHB132-.LFB4542
	.uleb128 .LEHE132-.LEHB132
	.uleb128 .L580-.LFB4542
	.uleb128 0
	.uleb128 .LEHB133-.LFB4542
	.uleb128 .LEHE133-.LEHB133
	.uleb128 .L581-.LFB4542
	.uleb128 0
	.uleb128 .LEHB134-.LFB4542
	.uleb128 .LEHE134-.LEHB134
	.uleb128 .L582-.LFB4542
	.uleb128 0
	.uleb128 .LEHB135-.LFB4542
	.uleb128 .LEHE135-.LEHB135
	.uleb128 0
	.uleb128 0
.LLSDACSE4542:
	.text
	.size	_ZN2fp6reduceIZN11fp_specific13double_filterESt8functionIFbdEESt6vectorIdSaIdEEEUlS7_dE_S7_S7_EET1_T_T0_S9_, .-_ZN2fp6reduceIZN11fp_specific13double_filterESt8functionIFbdEESt6vectorIdSaIdEEEUlS7_dE_S7_S7_EET1_T_T0_S9_
	.section	.text._ZNKSt8functionIFbfEEclEf,"axG",@progbits,_ZNKSt8functionIFbfEEclEf,comdat
	.align 2
	.weak	_ZNKSt8functionIFbfEEclEf
	.type	_ZNKSt8functionIFbfEEclEf, @function
_ZNKSt8functionIFbfEEclEf:
.LFB4546:
	.cfi_startproc
	pushq	%rbp
	.cfi_def_cfa_offset 16
	.cfi_offset 6, -16
	movq	%rsp, %rbp
	.cfi_def_cfa_register 6
	pushq	%rbx
	subq	$24, %rsp
	.cfi_offset 3, -24
	movq	%rdi, -24(%rbp)
	movss	%xmm0, -28(%rbp)
	movq	-24(%rbp), %rax
	movq	%rax, %rdi
	call	_ZNKSt14_Function_base8_M_emptyEv
	testb	%al, %al
	je	.L584
	call	_ZSt25__throw_bad_function_callv@PLT
.L584:
	movq	-24(%rbp), %rax
	movq	24(%rax), %rbx
	leaq	-28(%rbp), %rax
	movq	%rax, %rdi
	call	_ZSt7forwardIfEOT_RNSt16remove_referenceIS0_E4typeE
	movq	%rax, %rdx
	movq	-24(%rbp), %rax
	movq	%rdx, %rsi
	movq	%rax, %rdi
	call	*%rbx
	movq	-8(%rbp), %rbx
	leave
	.cfi_def_cfa 7, 8
	ret
	.cfi_endproc
.LFE4546:
	.size	_ZNKSt8functionIFbfEEclEf, .-_ZNKSt8functionIFbfEEclEf
	.section	.text._ZNSt6vectorIfSaIfEE9push_backERKf,"axG",@progbits,_ZNSt6vectorIfSaIfEE9push_backERKf,comdat
	.align 2
	.weak	_ZNSt6vectorIfSaIfEE9push_backERKf
	.type	_ZNSt6vectorIfSaIfEE9push_backERKf, @function
_ZNSt6vectorIfSaIfEE9push_backERKf:
.LFB4547:
	.cfi_startproc
	pushq	%rbp
	.cfi_def_cfa_offset 16
	.cfi_offset 6, -16
	movq	%rsp, %rbp
	.cfi_def_cfa_register 6
	subq	$48, %rsp
	movq	%rdi, -40(%rbp)
	movq	%rsi, -48(%rbp)
	movq	-40(%rbp), %rax
	movq	8(%rax), %rdx
	movq	-40(%rbp), %rax
	movq	16(%rax), %rax
	cmpq	%rax, %rdx
	je	.L587
	movq	-40(%rbp), %rax
	movq	8(%rax), %rax
	movq	-40(%rbp), %rdx
	movq	%rdx, -24(%rbp)
	movq	%rax, -16(%rbp)
	movq	-48(%rbp), %rax
	movq	%rax, -8(%rbp)
	movq	-8(%rbp), %rax
	movq	%rax, %rdi
	call	_ZSt7forwardIRKfEOT_RNSt16remove_referenceIS2_E4typeE
	movq	%rax, %rdx
	movq	-16(%rbp), %rax
	movq	%rdx, %rsi
	movq	%rax, %rdi
	call	_ZSt12construct_atIfJRKfEEDTgsnwcvPvLi0E_T_pispcl7declvalIT0_EEEEPS3_DpOS4_
	nop
	movq	-40(%rbp), %rax
	movq	8(%rax), %rax
	leaq	4(%rax), %rdx
	movq	-40(%rbp), %rax
	movq	%rdx, 8(%rax)
	jmp	.L589
.L587:
	movq	-40(%rbp), %rax
	movq	%rax, %rdi
	call	_ZNSt6vectorIfSaIfEE3endEv
	movq	%rax, %rcx
	movq	-48(%rbp), %rdx
	movq	-40(%rbp), %rax
	movq	%rcx, %rsi
	movq	%rax, %rdi
	call	_ZNSt6vectorIfSaIfEE17_M_realloc_insertIJRKfEEEvN9__gnu_cxx17__normal_iteratorIPfS1_EEDpOT_
.L589:
	nop
	leave
	.cfi_def_cfa 7, 8
	ret
	.cfi_endproc
.LFE4547:
	.size	_ZNSt6vectorIfSaIfEE9push_backERKf, .-_ZNSt6vectorIfSaIfEE9push_backERKf
	.section	.text._ZNSt8functionIFbfEEC2ERKS1_,"axG",@progbits,_ZNSt8functionIFbfEEC5ERKS1_,comdat
	.align 2
	.weak	_ZNSt8functionIFbfEEC2ERKS1_
	.type	_ZNSt8functionIFbfEEC2ERKS1_, @function
_ZNSt8functionIFbfEEC2ERKS1_:
.LFB4550:
	.cfi_startproc
	.cfi_personality 0x9b,DW.ref.__gxx_personality_v0
	.cfi_lsda 0x1b,.LLSDA4550
	pushq	%rbp
	.cfi_def_cfa_offset 16
	.cfi_offset 6, -16
	movq	%rsp, %rbp
	.cfi_def_cfa_register 6
	pushq	%rbx
	subq	$24, %rsp
	.cfi_offset 3, -24
	movq	%rdi, -24(%rbp)
	movq	%rsi, -32(%rbp)
	movq	-24(%rbp), %rax
	pxor	%xmm0, %xmm0
	movups	%xmm0, (%rax)
	movq	%xmm0, 16(%rax)
	movq	-24(%rbp), %rax
	movq	%rax, %rdi
	call	_ZNSt14_Function_baseC2Ev
	movq	-24(%rbp), %rax
	movq	$0, 24(%rax)
	movq	-32(%rbp), %rax
	movq	%rax, %rdi
	call	_ZNKSt8functionIFbfEEcvbEv
	testb	%al, %al
	je	.L594
	movq	-32(%rbp), %rax
	movq	16(%rax), %r8
	movq	-32(%rbp), %rcx
	movq	-24(%rbp), %rax
	movl	$2, %edx
	movq	%rcx, %rsi
	movq	%rax, %rdi
.LEHB136:
	call	*%r8
.LEHE136:
	movq	-32(%rbp), %rax
	movq	24(%rax), %rdx
	movq	-24(%rbp), %rax
	movq	%rdx, 24(%rax)
	movq	-32(%rbp), %rax
	movq	16(%rax), %rdx
	movq	-24(%rbp), %rax
	movq	%rdx, 16(%rax)
	jmp	.L594
.L593:
	movq	%rax, %rbx
	movq	-24(%rbp), %rax
	movq	%rax, %rdi
	call	_ZNSt14_Function_baseD2Ev
	movq	%rbx, %rax
	movq	%rax, %rdi
.LEHB137:
	call	_Unwind_Resume@PLT
.LEHE137:
.L594:
	nop
	movq	-8(%rbp), %rbx
	leave
	.cfi_def_cfa 7, 8
	ret
	.cfi_endproc
.LFE4550:
	.section	.gcc_except_table
.LLSDA4550:
	.byte	0xff
	.byte	0xff
	.byte	0x1
	.uleb128 .LLSDACSE4550-.LLSDACSB4550
.LLSDACSB4550:
	.uleb128 .LEHB136-.LFB4550
	.uleb128 .LEHE136-.LEHB136
	.uleb128 .L593-.LFB4550
	.uleb128 0
	.uleb128 .LEHB137-.LFB4550
	.uleb128 .LEHE137-.LEHB137
	.uleb128 0
	.uleb128 0
.LLSDACSE4550:
	.section	.text._ZNSt8functionIFbfEEC2ERKS1_,"axG",@progbits,_ZNSt8functionIFbfEEC5ERKS1_,comdat
	.size	_ZNSt8functionIFbfEEC2ERKS1_, .-_ZNSt8functionIFbfEEC2ERKS1_
	.weak	_ZNSt8functionIFbfEEC1ERKS1_
	.set	_ZNSt8functionIFbfEEC1ERKS1_,_ZNSt8functionIFbfEEC2ERKS1_
	.text
	.align 2
	.type	_ZZN11fp_specific12float_filterESt8functionIFbfEESt6vectorIfSaIfEEENUlS5_fE_C2ERKS6_, @function
_ZZN11fp_specific12float_filterESt8functionIFbfEESt6vectorIfSaIfEEENUlS5_fE_C2ERKS6_:
.LFB4554:
	.cfi_startproc
	pushq	%rbp
	.cfi_def_cfa_offset 16
	.cfi_offset 6, -16
	movq	%rsp, %rbp
	.cfi_def_cfa_register 6
	subq	$16, %rsp
	movq	%rdi, -8(%rbp)
	movq	%rsi, -16(%rbp)
	movq	-8(%rbp), %rax
	movq	-16(%rbp), %rdx
	movq	%rdx, %rsi
	movq	%rax, %rdi
	call	_ZNSt8functionIFbfEEC1ERKS1_
	nop
	leave
	.cfi_def_cfa 7, 8
	ret
	.cfi_endproc
.LFE4554:
	.size	_ZZN11fp_specific12float_filterESt8functionIFbfEESt6vectorIfSaIfEEENUlS5_fE_C2ERKS6_, .-_ZZN11fp_specific12float_filterESt8functionIFbfEESt6vectorIfSaIfEEENUlS5_fE_C2ERKS6_
	.set	_ZZN11fp_specific12float_filterESt8functionIFbfEESt6vectorIfSaIfEEENUlS5_fE_C1ERKS6_,_ZZN11fp_specific12float_filterESt8functionIFbfEESt6vectorIfSaIfEEENUlS5_fE_C2ERKS6_
	.type	_ZN2fp6reduceIZN11fp_specific12float_filterESt8functionIFbfEESt6vectorIfSaIfEEEUlS7_fE_S7_S7_EET1_T_T0_S9_, @function
_ZN2fp6reduceIZN11fp_specific12float_filterESt8functionIFbfEESt6vectorIfSaIfEEEUlS7_fE_S7_S7_EET1_T_T0_S9_:
.LFB4552:
	.cfi_startproc
	.cfi_personality 0x9b,DW.ref.__gxx_personality_v0
	.cfi_lsda 0x1b,.LLSDA4552
	pushq	%rbp
	.cfi_def_cfa_offset 16
	.cfi_offset 6, -16
	movq	%rsp, %rbp
	.cfi_def_cfa_register 6
	pushq	%rbx
	subq	$232, %rsp
	.cfi_offset 3, -24
	movq	%rdi, -216(%rbp)
	movq	%rsi, -224(%rbp)
	movq	%rdx, -232(%rbp)
	movq	%rcx, -240(%rbp)
	movq	%fs:40, %rax
	movq	%rax, -24(%rbp)
	xorl	%eax, %eax
	movq	-232(%rbp), %rax
	movq	%rax, %rdi
	call	_ZNKSt6vectorIfSaIfEE4sizeEv
	testq	%rax, %rax
	sete	%al
	testb	%al, %al
	je	.L597
	movq	-240(%rbp), %rdx
	movq	-216(%rbp), %rax
	movq	%rdx, %rsi
	movq	%rax, %rdi
	call	_ZNSt6vectorIfSaIfEEC1EOS1_
	jmp	.L596
.L597:
	leaq	-128(%rbp), %rax
	movq	%rax, -200(%rbp)
	nop
	nop
	movq	-232(%rbp), %rax
	movq	%rax, %rdi
	call	_ZNSt6vectorIfSaIfEE3endEv
	movq	%rax, %rbx
	movq	-232(%rbp), %rax
	movq	%rax, %rdi
	call	_ZNSt6vectorIfSaIfEE5beginEv
	movq	%rax, -96(%rbp)
	leaq	-96(%rbp), %rax
	movl	$1, %esi
	movq	%rax, %rdi
	call	_ZNK9__gnu_cxx17__normal_iteratorIPfSt6vectorIfSaIfEEEplEl
	movq	%rax, %rsi
	leaq	-128(%rbp), %rdx
	leaq	-192(%rbp), %rax
	movq	%rdx, %rcx
	movq	%rbx, %rdx
	movq	%rax, %rdi
.LEHB138:
	call	_ZNSt6vectorIfSaIfEEC1IN9__gnu_cxx17__normal_iteratorIPfS1_EEvEET_S7_RKS0_
.LEHE138:
	nop
	movq	-232(%rbp), %rax
	movl	$0, %esi
	movq	%rax, %rdi
	call	_ZNSt6vectorIfSaIfEEixEm
	movl	(%rax), %ebx
	movq	-240(%rbp), %rdx
	leaq	-160(%rbp), %rax
	movq	%rdx, %rsi
	movq	%rax, %rdi
.LEHB139:
	call	_ZNSt6vectorIfSaIfEEC1ERKS1_
.LEHE139:
	leaq	-128(%rbp), %rax
	leaq	-160(%rbp), %rdx
	movq	-224(%rbp), %rcx
	movd	%ebx, %xmm0
	movq	%rcx, %rsi
	movq	%rax, %rdi
.LEHB140:
	call	_ZZN11fp_specific12float_filterESt8functionIFbfEESt6vectorIfSaIfEEENKUlS5_fE_clES5_f
.LEHE140:
	leaq	-192(%rbp), %rdx
	leaq	-96(%rbp), %rax
	movq	%rdx, %rsi
	movq	%rax, %rdi
.LEHB141:
	call	_ZNSt6vectorIfSaIfEEC1ERKS1_
.LEHE141:
	movq	-224(%rbp), %rdx
	leaq	-64(%rbp), %rax
	movq	%rdx, %rsi
	movq	%rax, %rdi
.LEHB142:
	call	_ZZN11fp_specific12float_filterESt8functionIFbfEESt6vectorIfSaIfEEENUlS5_fE_C1ERKS6_
.LEHE142:
	movq	-216(%rbp), %rax
	leaq	-128(%rbp), %rcx
	leaq	-96(%rbp), %rdx
	leaq	-64(%rbp), %rsi
	movq	%rax, %rdi
.LEHB143:
	call	_ZN2fp6reduceIZN11fp_specific12float_filterESt8functionIFbfEESt6vectorIfSaIfEEEUlS7_fE_S7_S7_EET1_T_T0_S9_
.LEHE143:
	leaq	-64(%rbp), %rax
	movq	%rax, %rdi
	call	_ZZN11fp_specific12float_filterESt8functionIFbfEESt6vectorIfSaIfEEENUlS5_fE_D1Ev
	leaq	-96(%rbp), %rax
	movq	%rax, %rdi
	call	_ZNSt6vectorIfSaIfEED1Ev
	leaq	-128(%rbp), %rax
	movq	%rax, %rdi
	call	_ZNSt6vectorIfSaIfEED1Ev
	leaq	-160(%rbp), %rax
	movq	%rax, %rdi
	call	_ZNSt6vectorIfSaIfEED1Ev
	leaq	-192(%rbp), %rax
	movq	%rax, %rdi
	call	_ZNSt6vectorIfSaIfEED1Ev
	jmp	.L596
.L609:
	nop
	movq	-24(%rbp), %rdx
	subq	%fs:40, %rdx
	je	.L601
	call	__stack_chk_fail@PLT
.L601:
	movq	%rax, %rdi
.LEHB144:
	call	_Unwind_Resume@PLT
.L614:
	movq	%rax, %rbx
	leaq	-64(%rbp), %rax
	movq	%rax, %rdi
	call	_ZZN11fp_specific12float_filterESt8functionIFbfEESt6vectorIfSaIfEEENUlS5_fE_D1Ev
	jmp	.L603
.L613:
	movq	%rax, %rbx
.L603:
	leaq	-96(%rbp), %rax
	movq	%rax, %rdi
	call	_ZNSt6vectorIfSaIfEED1Ev
	jmp	.L604
.L612:
	movq	%rax, %rbx
.L604:
	leaq	-128(%rbp), %rax
	movq	%rax, %rdi
	call	_ZNSt6vectorIfSaIfEED1Ev
	jmp	.L605
.L611:
	movq	%rax, %rbx
.L605:
	leaq	-160(%rbp), %rax
	movq	%rax, %rdi
	call	_ZNSt6vectorIfSaIfEED1Ev
	jmp	.L606
.L610:
	movq	%rax, %rbx
.L606:
	leaq	-192(%rbp), %rax
	movq	%rax, %rdi
	call	_ZNSt6vectorIfSaIfEED1Ev
	movq	%rbx, %rax
	movq	-24(%rbp), %rdx
	subq	%fs:40, %rdx
	je	.L607
	call	__stack_chk_fail@PLT
.L607:
	movq	%rax, %rdi
	call	_Unwind_Resume@PLT
.LEHE144:
.L596:
	movq	-24(%rbp), %rax
	subq	%fs:40, %rax
	je	.L608
	call	__stack_chk_fail@PLT
.L608:
	movq	-216(%rbp), %rax
	movq	-8(%rbp), %rbx
	leave
	.cfi_def_cfa 7, 8
	ret
	.cfi_endproc
.LFE4552:
	.section	.gcc_except_table
.LLSDA4552:
	.byte	0xff
	.byte	0xff
	.byte	0x1
	.uleb128 .LLSDACSE4552-.LLSDACSB4552
.LLSDACSB4552:
	.uleb128 .LEHB138-.LFB4552
	.uleb128 .LEHE138-.LEHB138
	.uleb128 .L609-.LFB4552
	.uleb128 0
	.uleb128 .LEHB139-.LFB4552
	.uleb128 .LEHE139-.LEHB139
	.uleb128 .L610-.LFB4552
	.uleb128 0
	.uleb128 .LEHB140-.LFB4552
	.uleb128 .LEHE140-.LEHB140
	.uleb128 .L611-.LFB4552
	.uleb128 0
	.uleb128 .LEHB141-.LFB4552
	.uleb128 .LEHE141-.LEHB141
	.uleb128 .L612-.LFB4552
	.uleb128 0
	.uleb128 .LEHB142-.LFB4552
	.uleb128 .LEHE142-.LEHB142
	.uleb128 .L613-.LFB4552
	.uleb128 0
	.uleb128 .LEHB143-.LFB4552
	.uleb128 .LEHE143-.LEHB143
	.uleb128 .L614-.LFB4552
	.uleb128 0
	.uleb128 .LEHB144-.LFB4552
	.uleb128 .LEHE144-.LEHB144
	.uleb128 0
	.uleb128 0
.LLSDACSE4552:
	.text
	.size	_ZN2fp6reduceIZN11fp_specific12float_filterESt8functionIFbfEESt6vectorIfSaIfEEEUlS7_fE_S7_S7_EET1_T_T0_S9_, .-_ZN2fp6reduceIZN11fp_specific12float_filterESt8functionIFbfEESt6vectorIfSaIfEEEUlS7_fE_S7_S7_EET1_T_T0_S9_
	.section	.text._ZSt22__uninitialized_copy_aIPKlPllET0_T_S4_S3_RSaIT1_E,"axG",@progbits,_ZSt22__uninitialized_copy_aIPKlPllET0_T_S4_S3_RSaIT1_E,comdat
	.weak	_ZSt22__uninitialized_copy_aIPKlPllET0_T_S4_S3_RSaIT1_E
	.type	_ZSt22__uninitialized_copy_aIPKlPllET0_T_S4_S3_RSaIT1_E, @function
_ZSt22__uninitialized_copy_aIPKlPllET0_T_S4_S3_RSaIT1_E:
.LFB4556:
	.cfi_startproc
	pushq	%rbp
	.cfi_def_cfa_offset 16
	.cfi_offset 6, -16
	movq	%rsp, %rbp
	.cfi_def_cfa_register 6
	subq	$32, %rsp
	movq	%rdi, -8(%rbp)
	movq	%rsi, -16(%rbp)
	movq	%rdx, -24(%rbp)
	movq	%rcx, -32(%rbp)
	call	_ZSt21is_constant_evaluatedv
	testb	%al, %al
	je	.L616
	movq	-24(%rbp), %rdx
	movq	-16(%rbp), %rcx
	movq	-8(%rbp), %rax
	movq	%rcx, %rsi
	movq	%rax, %rdi
	call	_ZSt16__do_uninit_copyIPKlPlET0_T_S4_S3_
	jmp	.L617
.L616:
	movq	-24(%rbp), %rdx
	movq	-16(%rbp), %rcx
	movq	-8(%rbp), %rax
	movq	%rcx, %rsi
	movq	%rax, %rdi
	call	_ZSt18uninitialized_copyIPKlPlET0_T_S4_S3_
	nop
.L617:
	leave
	.cfi_def_cfa 7, 8
	ret
	.cfi_endproc
.LFE4556:
	.size	_ZSt22__uninitialized_copy_aIPKlPllET0_T_S4_S3_RSaIT1_E, .-_ZSt22__uninitialized_copy_aIPKlPllET0_T_S4_S3_RSaIT1_E
	.section	.text._ZNSt15__new_allocatorIlE8allocateEmPKv,"axG",@progbits,_ZNSt15__new_allocatorIlE8allocateEmPKv,comdat
	.align 2
	.weak	_ZNSt15__new_allocatorIlE8allocateEmPKv
	.type	_ZNSt15__new_allocatorIlE8allocateEmPKv, @function
_ZNSt15__new_allocatorIlE8allocateEmPKv:
.LFB4557:
	.cfi_startproc
	pushq	%rbp
	.cfi_def_cfa_offset 16
	.cfi_offset 6, -16
	movq	%rsp, %rbp
	.cfi_def_cfa_register 6
	subq	$48, %rsp
	movq	%rdi, -24(%rbp)
	movq	%rsi, -32(%rbp)
	movq	%rdx, -40(%rbp)
	movq	-24(%rbp), %rax
	movq	%rax, -8(%rbp)
	movabsq	$1152921504606846975, %rax
	cmpq	-32(%rbp), %rax
	setb	%al
	movzbl	%al, %eax
	testq	%rax, %rax
	setne	%al
	testb	%al, %al
	je	.L620
	movabsq	$2305843009213693951, %rax
	cmpq	-32(%rbp), %rax
	jnb	.L621
	call	_ZSt28__throw_bad_array_new_lengthv@PLT
.L621:
	call	_ZSt17__throw_bad_allocv@PLT
.L620:
	movq	-32(%rbp), %rax
	salq	$3, %rax
	movq	%rax, %rdi
	call	_Znwm@PLT
	nop
	leave
	.cfi_def_cfa 7, 8
	ret
	.cfi_endproc
.LFE4557:
	.size	_ZNSt15__new_allocatorIlE8allocateEmPKv, .-_ZNSt15__new_allocatorIlE8allocateEmPKv
	.section	.text._ZN2fp3mapIFiiESt6vectorIlSaIlEEEET0_T_S5_,"axG",@progbits,_ZN2fp3mapIFiiESt6vectorIlSaIlEEEET0_T_S5_,comdat
	.weak	_ZN2fp3mapIFiiESt6vectorIlSaIlEEEET0_T_S5_
	.type	_ZN2fp3mapIFiiESt6vectorIlSaIlEEEET0_T_S5_, @function
_ZN2fp3mapIFiiESt6vectorIlSaIlEEEET0_T_S5_:
.LFB4558:
	.cfi_startproc
	.cfi_personality 0x9b,DW.ref.__gxx_personality_v0
	.cfi_lsda 0x1b,.LLSDA4558
	pushq	%rbp
	.cfi_def_cfa_offset 16
	.cfi_offset 6, -16
	movq	%rsp, %rbp
	.cfi_def_cfa_register 6
	pushq	%rbx
	subq	$136, %rsp
	.cfi_offset 3, -24
	movq	%rdi, -120(%rbp)
	movq	%rsi, -128(%rbp)
	movq	%rdx, -136(%rbp)
	movq	%fs:40, %rax
	movq	%rax, -24(%rbp)
	xorl	%eax, %eax
	pxor	%xmm0, %xmm0
	movaps	%xmm0, -112(%rbp)
	movq	%xmm0, -96(%rbp)
	leaq	-112(%rbp), %rdx
	leaq	-48(%rbp), %rax
	movq	%rdx, %rsi
	movq	%rax, %rdi
.LEHB145:
	call	_ZNSt6vectorIlSaIlEEC1ERKS1_
.LEHE145:
	movq	-136(%rbp), %rdx
	leaq	-80(%rbp), %rax
	movq	%rdx, %rsi
	movq	%rax, %rdi
.LEHB146:
	call	_ZNSt6vectorIlSaIlEEC1ERKS1_
.LEHE146:
	movq	-128(%rbp), %rsi
	movq	-120(%rbp), %rax
	leaq	-48(%rbp), %rcx
	leaq	-80(%rbp), %rdx
	movq	%rax, %rdi
.LEHB147:
	call	_ZN2fp6reduceIZNS_3mapIFiiESt6vectorIlSaIlEEEET0_T_S6_EUlS5_S7_E_S5_S5_EET1_S7_S6_S9_
.LEHE147:
	leaq	-80(%rbp), %rax
	movq	%rax, %rdi
	call	_ZNSt6vectorIlSaIlEED1Ev
	leaq	-48(%rbp), %rax
	movq	%rax, %rdi
	call	_ZNSt6vectorIlSaIlEED1Ev
	leaq	-112(%rbp), %rax
	movq	%rax, %rdi
	call	_ZNSt6vectorIlSaIlEED1Ev
	nop
	movq	-24(%rbp), %rax
	subq	%fs:40, %rax
	je	.L629
	jmp	.L633
.L632:
	movq	%rax, %rbx
	leaq	-80(%rbp), %rax
	movq	%rax, %rdi
	call	_ZNSt6vectorIlSaIlEED1Ev
	jmp	.L626
.L631:
	movq	%rax, %rbx
.L626:
	leaq	-48(%rbp), %rax
	movq	%rax, %rdi
	call	_ZNSt6vectorIlSaIlEED1Ev
	jmp	.L627
.L630:
	movq	%rax, %rbx
.L627:
	leaq	-112(%rbp), %rax
	movq	%rax, %rdi
	call	_ZNSt6vectorIlSaIlEED1Ev
	movq	%rbx, %rax
	movq	-24(%rbp), %rdx
	subq	%fs:40, %rdx
	je	.L628
	call	__stack_chk_fail@PLT
.L628:
	movq	%rax, %rdi
.LEHB148:
	call	_Unwind_Resume@PLT
.LEHE148:
.L633:
	call	__stack_chk_fail@PLT
.L629:
	movq	-120(%rbp), %rax
	movq	-8(%rbp), %rbx
	leave
	.cfi_def_cfa 7, 8
	ret
	.cfi_endproc
.LFE4558:
	.section	.gcc_except_table
.LLSDA4558:
	.byte	0xff
	.byte	0xff
	.byte	0x1
	.uleb128 .LLSDACSE4558-.LLSDACSB4558
.LLSDACSB4558:
	.uleb128 .LEHB145-.LFB4558
	.uleb128 .LEHE145-.LEHB145
	.uleb128 .L630-.LFB4558
	.uleb128 0
	.uleb128 .LEHB146-.LFB4558
	.uleb128 .LEHE146-.LEHB146
	.uleb128 .L631-.LFB4558
	.uleb128 0
	.uleb128 .LEHB147-.LFB4558
	.uleb128 .LEHE147-.LEHB147
	.uleb128 .L632-.LFB4558
	.uleb128 0
	.uleb128 .LEHB148-.LFB4558
	.uleb128 .LEHE148-.LEHB148
	.uleb128 0
	.uleb128 0
.LLSDACSE4558:
	.section	.text._ZN2fp3mapIFiiESt6vectorIlSaIlEEEET0_T_S5_,"axG",@progbits,_ZN2fp3mapIFiiESt6vectorIlSaIlEEEET0_T_S5_,comdat
	.size	_ZN2fp3mapIFiiESt6vectorIlSaIlEEEET0_T_S5_, .-_ZN2fp3mapIFiiESt6vectorIlSaIlEEEET0_T_S5_
	.section	.text._ZN2fp6filterIFbiESt6vectorIlSaIlEEEET0_T_S5_,"axG",@progbits,_ZN2fp6filterIFbiESt6vectorIlSaIlEEEET0_T_S5_,comdat
	.weak	_ZN2fp6filterIFbiESt6vectorIlSaIlEEEET0_T_S5_
	.type	_ZN2fp6filterIFbiESt6vectorIlSaIlEEEET0_T_S5_, @function
_ZN2fp6filterIFbiESt6vectorIlSaIlEEEET0_T_S5_:
.LFB4560:
	.cfi_startproc
	.cfi_personality 0x9b,DW.ref.__gxx_personality_v0
	.cfi_lsda 0x1b,.LLSDA4560
	pushq	%rbp
	.cfi_def_cfa_offset 16
	.cfi_offset 6, -16
	movq	%rsp, %rbp
	.cfi_def_cfa_register 6
	pushq	%rbx
	subq	$152, %rsp
	.cfi_offset 3, -24
	movq	%rdi, -136(%rbp)
	movq	%rsi, -144(%rbp)
	movq	%rdx, -152(%rbp)
	movq	%fs:40, %rax
	movq	%rax, -24(%rbp)
	xorl	%eax, %eax
	movq	-144(%rbp), %rax
	movq	%rax, -120(%rbp)
	pxor	%xmm0, %xmm0
	movaps	%xmm0, -112(%rbp)
	movq	%xmm0, -96(%rbp)
	leaq	-112(%rbp), %rdx
	leaq	-48(%rbp), %rax
	movq	%rdx, %rsi
	movq	%rax, %rdi
.LEHB149:
	call	_ZNSt6vectorIlSaIlEEC1ERKS1_
.LEHE149:
	movq	-152(%rbp), %rdx
	leaq	-80(%rbp), %rax
	movq	%rdx, %rsi
	movq	%rax, %rdi
.LEHB150:
	call	_ZNSt6vectorIlSaIlEEC1ERKS1_
.LEHE150:
	movq	-136(%rbp), %rax
	leaq	-48(%rbp), %rcx
	leaq	-80(%rbp), %rdx
	movq	-120(%rbp), %rsi
	movq	%rax, %rdi
.LEHB151:
	call	_ZN2fp6reduceIZNS_6filterIFbiESt6vectorIlSaIlEEEET0_T_S6_EUlS5_S7_E_S5_S5_EET1_S7_S6_S9_
.LEHE151:
	leaq	-80(%rbp), %rax
	movq	%rax, %rdi
	call	_ZNSt6vectorIlSaIlEED1Ev
	leaq	-48(%rbp), %rax
	movq	%rax, %rdi
	call	_ZNSt6vectorIlSaIlEED1Ev
	leaq	-112(%rbp), %rax
	movq	%rax, %rdi
	call	_ZNSt6vectorIlSaIlEED1Ev
	nop
	movq	-24(%rbp), %rax
	subq	%fs:40, %rax
	je	.L640
	jmp	.L644
.L643:
	movq	%rax, %rbx
	leaq	-80(%rbp), %rax
	movq	%rax, %rdi
	call	_ZNSt6vectorIlSaIlEED1Ev
	jmp	.L637
.L642:
	movq	%rax, %rbx
.L637:
	leaq	-48(%rbp), %rax
	movq	%rax, %rdi
	call	_ZNSt6vectorIlSaIlEED1Ev
	jmp	.L638
.L641:
	movq	%rax, %rbx
.L638:
	leaq	-112(%rbp), %rax
	movq	%rax, %rdi
	call	_ZNSt6vectorIlSaIlEED1Ev
	movq	%rbx, %rax
	movq	-24(%rbp), %rdx
	subq	%fs:40, %rdx
	je	.L639
	call	__stack_chk_fail@PLT
.L639:
	movq	%rax, %rdi
.LEHB152:
	call	_Unwind_Resume@PLT
.LEHE152:
.L644:
	call	__stack_chk_fail@PLT
.L640:
	movq	-136(%rbp), %rax
	movq	-8(%rbp), %rbx
	leave
	.cfi_def_cfa 7, 8
	ret
	.cfi_endproc
.LFE4560:
	.section	.gcc_except_table
.LLSDA4560:
	.byte	0xff
	.byte	0xff
	.byte	0x1
	.uleb128 .LLSDACSE4560-.LLSDACSB4560
.LLSDACSB4560:
	.uleb128 .LEHB149-.LFB4560
	.uleb128 .LEHE149-.LEHB149
	.uleb128 .L641-.LFB4560
	.uleb128 0
	.uleb128 .LEHB150-.LFB4560
	.uleb128 .LEHE150-.LEHB150
	.uleb128 .L642-.LFB4560
	.uleb128 0
	.uleb128 .LEHB151-.LFB4560
	.uleb128 .LEHE151-.LEHB151
	.uleb128 .L643-.LFB4560
	.uleb128 0
	.uleb128 .LEHB152-.LFB4560
	.uleb128 .LEHE152-.LEHB152
	.uleb128 0
	.uleb128 0
.LLSDACSE4560:
	.section	.text._ZN2fp6filterIFbiESt6vectorIlSaIlEEEET0_T_S5_,"axG",@progbits,_ZN2fp6filterIFbiESt6vectorIlSaIlEEEET0_T_S5_,comdat
	.size	_ZN2fp6filterIFbiESt6vectorIlSaIlEEEET0_T_S5_, .-_ZN2fp6filterIFbiESt6vectorIlSaIlEEEET0_T_S5_
	.section	.text._ZNSt8functionIFSt6vectorIlSaIlEES2_EEC2IZN2fp5curryIPFS2_PFiiES2_EJS9_EEEDaT_DpT0_EUlDpT_E_vEEOSC_,"axG",@progbits,_ZNSt8functionIFSt6vectorIlSaIlEES2_EEC5IZN2fp5curryIPFS2_PFiiES2_EJS9_EEEDaT_DpT0_EUlDpT_E_vEEOSC_,comdat
	.align 2
	.weak	_ZNSt8functionIFSt6vectorIlSaIlEES2_EEC2IZN2fp5curryIPFS2_PFiiES2_EJS9_EEEDaT_DpT0_EUlDpT_E_vEEOSC_
	.type	_ZNSt8functionIFSt6vectorIlSaIlEES2_EEC2IZN2fp5curryIPFS2_PFiiES2_EJS9_EEEDaT_DpT0_EUlDpT_E_vEEOSC_, @function
_ZNSt8functionIFSt6vectorIlSaIlEES2_EEC2IZN2fp5curryIPFS2_PFiiES2_EJS9_EEEDaT_DpT0_EUlDpT_E_vEEOSC_:
.LFB4563:
	.cfi_startproc
	pushq	%rbp
	.cfi_def_cfa_offset 16
	.cfi_offset 6, -16
	movq	%rsp, %rbp
	.cfi_def_cfa_register 6
	subq	$16, %rsp
	movq	%rdi, -8(%rbp)
	movq	%rsi, -16(%rbp)
	movq	-8(%rbp), %rax
	pxor	%xmm0, %xmm0
	movups	%xmm0, (%rax)
	movq	%xmm0, 16(%rax)
	movq	-8(%rbp), %rax
	movq	%rax, %rdi
	call	_ZNSt14_Function_baseC2Ev
	movq	-8(%rbp), %rax
	movq	$0, 24(%rax)
	movq	-16(%rbp), %rax
	movq	%rax, %rdi
	call	_ZNSt14_Function_base13_Base_managerIZN2fp5curryIPFSt6vectorIlSaIlEEPFiiES5_EJS7_EEEDaT_DpT0_EUlDpT_E_E21_M_not_empty_functionISF_EEbRKSA_
	testb	%al, %al
	je	.L647
	movq	-16(%rbp), %rax
	movq	%rax, %rdi
	call	_ZSt7forwardIZN2fp5curryIPFSt6vectorIlSaIlEEPFiiES4_EJS6_EEEDaT_DpT0_EUlDpT_E_EOS9_RNSt16remove_referenceIS9_E4typeE
	movq	%rax, %rdx
	movq	-8(%rbp), %rax
	movq	%rdx, %rsi
	movq	%rax, %rdi
	call	_ZNSt14_Function_base13_Base_managerIZN2fp5curryIPFSt6vectorIlSaIlEEPFiiES5_EJS7_EEEDaT_DpT0_EUlDpT_E_E15_M_init_functorISF_EEvRSt9_Any_dataOSA_
	movq	-8(%rbp), %rax
	leaq	_ZNSt17_Function_handlerIFSt6vectorIlSaIlEES2_EZN2fp5curryIPFS2_PFiiES2_EJS7_EEEDaT_DpT0_EUlDpT_E_E9_M_invokeERKSt9_Any_dataOS2_(%rip), %rdx
	movq	%rdx, 24(%rax)
	movq	-8(%rbp), %rax
	leaq	_ZNSt17_Function_handlerIFSt6vectorIlSaIlEES2_EZN2fp5curryIPFS2_PFiiES2_EJS7_EEEDaT_DpT0_EUlDpT_E_E10_M_managerERSt9_Any_dataRKSH_St18_Manager_operation(%rip), %rdx
	movq	%rdx, 16(%rax)
.L647:
	nop
	leave
	.cfi_def_cfa 7, 8
	ret
	.cfi_endproc
.LFE4563:
	.size	_ZNSt8functionIFSt6vectorIlSaIlEES2_EEC2IZN2fp5curryIPFS2_PFiiES2_EJS9_EEEDaT_DpT0_EUlDpT_E_vEEOSC_, .-_ZNSt8functionIFSt6vectorIlSaIlEES2_EEC2IZN2fp5curryIPFS2_PFiiES2_EJS9_EEEDaT_DpT0_EUlDpT_E_vEEOSC_
	.weak	_ZNSt8functionIFSt6vectorIlSaIlEES2_EEC1IZN2fp5curryIPFS2_PFiiES2_EJS9_EEEDaT_DpT0_EUlDpT_E_vEEOSC_
	.set	_ZNSt8functionIFSt6vectorIlSaIlEES2_EEC1IZN2fp5curryIPFS2_PFiiES2_EJS9_EEEDaT_DpT0_EUlDpT_E_vEEOSC_,_ZNSt8functionIFSt6vectorIlSaIlEES2_EEC2IZN2fp5curryIPFS2_PFiiES2_EJS9_EEEDaT_DpT0_EUlDpT_E_vEEOSC_
	.section	.text._ZNSt8functionIFSt6vectorIlSaIlEES2_EEC2IZN2fp5curryIPFS2_PFbiES2_EJS9_EEEDaT_DpT0_EUlDpT_E_vEEOSC_,"axG",@progbits,_ZNSt8functionIFSt6vectorIlSaIlEES2_EEC5IZN2fp5curryIPFS2_PFbiES2_EJS9_EEEDaT_DpT0_EUlDpT_E_vEEOSC_,comdat
	.align 2
	.weak	_ZNSt8functionIFSt6vectorIlSaIlEES2_EEC2IZN2fp5curryIPFS2_PFbiES2_EJS9_EEEDaT_DpT0_EUlDpT_E_vEEOSC_
	.type	_ZNSt8functionIFSt6vectorIlSaIlEES2_EEC2IZN2fp5curryIPFS2_PFbiES2_EJS9_EEEDaT_DpT0_EUlDpT_E_vEEOSC_, @function
_ZNSt8functionIFSt6vectorIlSaIlEES2_EEC2IZN2fp5curryIPFS2_PFbiES2_EJS9_EEEDaT_DpT0_EUlDpT_E_vEEOSC_:
.LFB4566:
	.cfi_startproc
	pushq	%rbp
	.cfi_def_cfa_offset 16
	.cfi_offset 6, -16
	movq	%rsp, %rbp
	.cfi_def_cfa_register 6
	subq	$16, %rsp
	movq	%rdi, -8(%rbp)
	movq	%rsi, -16(%rbp)
	movq	-8(%rbp), %rax
	pxor	%xmm0, %xmm0
	movups	%xmm0, (%rax)
	movq	%xmm0, 16(%rax)
	movq	-8(%rbp), %rax
	movq	%rax, %rdi
	call	_ZNSt14_Function_baseC2Ev
	movq	-8(%rbp), %rax
	movq	$0, 24(%rax)
	movq	-16(%rbp), %rax
	movq	%rax, %rdi
	call	_ZNSt14_Function_base13_Base_managerIZN2fp5curryIPFSt6vectorIlSaIlEEPFbiES5_EJS7_EEEDaT_DpT0_EUlDpT_E_E21_M_not_empty_functionISF_EEbRKSA_
	testb	%al, %al
	je	.L650
	movq	-16(%rbp), %rax
	movq	%rax, %rdi
	call	_ZSt7forwardIZN2fp5curryIPFSt6vectorIlSaIlEEPFbiES4_EJS6_EEEDaT_DpT0_EUlDpT_E_EOS9_RNSt16remove_referenceIS9_E4typeE
	movq	%rax, %rdx
	movq	-8(%rbp), %rax
	movq	%rdx, %rsi
	movq	%rax, %rdi
	call	_ZNSt14_Function_base13_Base_managerIZN2fp5curryIPFSt6vectorIlSaIlEEPFbiES5_EJS7_EEEDaT_DpT0_EUlDpT_E_E15_M_init_functorISF_EEvRSt9_Any_dataOSA_
	movq	-8(%rbp), %rax
	leaq	_ZNSt17_Function_handlerIFSt6vectorIlSaIlEES2_EZN2fp5curryIPFS2_PFbiES2_EJS7_EEEDaT_DpT0_EUlDpT_E_E9_M_invokeERKSt9_Any_dataOS2_(%rip), %rdx
	movq	%rdx, 24(%rax)
	movq	-8(%rbp), %rax
	leaq	_ZNSt17_Function_handlerIFSt6vectorIlSaIlEES2_EZN2fp5curryIPFS2_PFbiES2_EJS7_EEEDaT_DpT0_EUlDpT_E_E10_M_managerERSt9_Any_dataRKSH_St18_Manager_operation(%rip), %rdx
	movq	%rdx, 16(%rax)
.L650:
	nop
	leave
	.cfi_def_cfa 7, 8
	ret
	.cfi_endproc
.LFE4566:
	.size	_ZNSt8functionIFSt6vectorIlSaIlEES2_EEC2IZN2fp5curryIPFS2_PFbiES2_EJS9_EEEDaT_DpT0_EUlDpT_E_vEEOSC_, .-_ZNSt8functionIFSt6vectorIlSaIlEES2_EEC2IZN2fp5curryIPFS2_PFbiES2_EJS9_EEEDaT_DpT0_EUlDpT_E_vEEOSC_
	.weak	_ZNSt8functionIFSt6vectorIlSaIlEES2_EEC1IZN2fp5curryIPFS2_PFbiES2_EJS9_EEEDaT_DpT0_EUlDpT_E_vEEOSC_
	.set	_ZNSt8functionIFSt6vectorIlSaIlEES2_EEC1IZN2fp5curryIPFS2_PFbiES2_EJS9_EEEDaT_DpT0_EUlDpT_E_vEEOSC_,_ZNSt8functionIFSt6vectorIlSaIlEES2_EEC2IZN2fp5curryIPFS2_PFbiES2_EJS9_EEEDaT_DpT0_EUlDpT_E_vEEOSC_
	.section	.text._ZNSt6vectorISt8functionIFS_IlSaIlEES2_EESaIS4_EEC2ESt16initializer_listIS4_ERKS5_,"axG",@progbits,_ZNSt6vectorISt8functionIFS_IlSaIlEES2_EESaIS4_EEC5ESt16initializer_listIS4_ERKS5_,comdat
	.align 2
	.weak	_ZNSt6vectorISt8functionIFS_IlSaIlEES2_EESaIS4_EEC2ESt16initializer_listIS4_ERKS5_
	.type	_ZNSt6vectorISt8functionIFS_IlSaIlEES2_EESaIS4_EEC2ESt16initializer_listIS4_ERKS5_, @function
_ZNSt6vectorISt8functionIFS_IlSaIlEES2_EESaIS4_EEC2ESt16initializer_listIS4_ERKS5_:
.LFB4575:
	.cfi_startproc
	.cfi_personality 0x9b,DW.ref.__gxx_personality_v0
	.cfi_lsda 0x1b,.LLSDA4575
	pushq	%rbp
	.cfi_def_cfa_offset 16
	.cfi_offset 6, -16
	movq	%rsp, %rbp
	.cfi_def_cfa_register 6
	pushq	%rbx
	subq	$56, %rsp
	.cfi_offset 3, -24
	movq	%rdi, -40(%rbp)
	movq	%rsi, %rax
	movq	%rdx, %rsi
	movq	%rsi, %rdx
	movq	%rax, -64(%rbp)
	movq	%rdx, -56(%rbp)
	movq	%rcx, -48(%rbp)
	movq	%fs:40, %rax
	movq	%rax, -24(%rbp)
	xorl	%eax, %eax
	movq	-40(%rbp), %rax
	movq	-48(%rbp), %rdx
	movq	%rdx, %rsi
	movq	%rax, %rdi
	call	_ZNSt12_Vector_baseISt8functionIFSt6vectorIlSaIlEES3_EESaIS5_EEC2ERKS6_
	leaq	-64(%rbp), %rax
	movq	%rax, %rdi
	call	_ZNKSt16initializer_listISt8functionIFSt6vectorIlSaIlEES3_EEE3endEv
	movq	%rax, %rbx
	leaq	-64(%rbp), %rax
	movq	%rax, %rdi
	call	_ZNKSt16initializer_listISt8functionIFSt6vectorIlSaIlEES3_EEE5beginEv
	movq	%rax, %rcx
	movq	-40(%rbp), %rax
	movq	%rbx, %rdx
	movq	%rcx, %rsi
	movq	%rax, %rdi
.LEHB153:
	call	_ZNSt6vectorISt8functionIFS_IlSaIlEES2_EESaIS4_EE19_M_range_initializeIPKS4_EEvT_SA_St20forward_iterator_tag
.LEHE153:
	jmp	.L656
.L655:
	movq	%rax, %rbx
	movq	-40(%rbp), %rax
	movq	%rax, %rdi
	call	_ZNSt12_Vector_baseISt8functionIFSt6vectorIlSaIlEES3_EESaIS5_EED2Ev
	movq	%rbx, %rax
	movq	-24(%rbp), %rdx
	subq	%fs:40, %rdx
	je	.L653
	call	__stack_chk_fail@PLT
.L653:
	movq	%rax, %rdi
.LEHB154:
	call	_Unwind_Resume@PLT
.LEHE154:
.L656:
	movq	-24(%rbp), %rax
	subq	%fs:40, %rax
	je	.L654
	call	__stack_chk_fail@PLT
.L654:
	movq	-8(%rbp), %rbx
	leave
	.cfi_def_cfa 7, 8
	ret
	.cfi_endproc
.LFE4575:
	.section	.gcc_except_table
.LLSDA4575:
	.byte	0xff
	.byte	0xff
	.byte	0x1
	.uleb128 .LLSDACSE4575-.LLSDACSB4575
.LLSDACSB4575:
	.uleb128 .LEHB153-.LFB4575
	.uleb128 .LEHE153-.LEHB153
	.uleb128 .L655-.LFB4575
	.uleb128 0
	.uleb128 .LEHB154-.LFB4575
	.uleb128 .LEHE154-.LEHB154
	.uleb128 0
	.uleb128 0
.LLSDACSE4575:
	.section	.text._ZNSt6vectorISt8functionIFS_IlSaIlEES2_EESaIS4_EEC2ESt16initializer_listIS4_ERKS5_,"axG",@progbits,_ZNSt6vectorISt8functionIFS_IlSaIlEES2_EESaIS4_EEC5ESt16initializer_listIS4_ERKS5_,comdat
	.size	_ZNSt6vectorISt8functionIFS_IlSaIlEES2_EESaIS4_EEC2ESt16initializer_listIS4_ERKS5_, .-_ZNSt6vectorISt8functionIFS_IlSaIlEES2_EESaIS4_EEC2ESt16initializer_listIS4_ERKS5_
	.weak	_ZNSt6vectorISt8functionIFS_IlSaIlEES2_EESaIS4_EEC1ESt16initializer_listIS4_ERKS5_
	.set	_ZNSt6vectorISt8functionIFS_IlSaIlEES2_EESaIS4_EEC1ESt16initializer_listIS4_ERKS5_,_ZNSt6vectorISt8functionIFS_IlSaIlEES2_EESaIS4_EEC2ESt16initializer_listIS4_ERKS5_
	.section	.text._ZNSt6vectorISt8functionIFS_IlSaIlEES2_EESaIS4_EED2Ev,"axG",@progbits,_ZNSt6vectorISt8functionIFS_IlSaIlEES2_EESaIS4_EED5Ev,comdat
	.align 2
	.weak	_ZNSt6vectorISt8functionIFS_IlSaIlEES2_EESaIS4_EED2Ev
	.type	_ZNSt6vectorISt8functionIFS_IlSaIlEES2_EESaIS4_EED2Ev, @function
_ZNSt6vectorISt8functionIFS_IlSaIlEES2_EESaIS4_EED2Ev:
.LFB4578:
	.cfi_startproc
	.cfi_personality 0x9b,DW.ref.__gxx_personality_v0
	.cfi_lsda 0x1b,.LLSDA4578
	pushq	%rbp
	.cfi_def_cfa_offset 16
	.cfi_offset 6, -16
	movq	%rsp, %rbp
	.cfi_def_cfa_register 6
	subq	$48, %rsp
	movq	%rdi, -40(%rbp)
	movq	-40(%rbp), %rax
	movq	%rax, %rdi
	call	_ZNSt12_Vector_baseISt8functionIFSt6vectorIlSaIlEES3_EESaIS5_EE19_M_get_Tp_allocatorEv
	movq	-40(%rbp), %rdx
	movq	8(%rdx), %rdx
	movq	-40(%rbp), %rcx
	movq	(%rcx), %rcx
	movq	%rcx, -24(%rbp)
	movq	%rdx, -16(%rbp)
	movq	%rax, -8(%rbp)
	movq	-16(%rbp), %rdx
	movq	-24(%rbp), %rax
	movq	%rdx, %rsi
	movq	%rax, %rdi
	call	_ZSt8_DestroyIPSt8functionIFSt6vectorIlSaIlEES3_EEEvT_S7_
	nop
	movq	-40(%rbp), %rax
	movq	%rax, %rdi
	call	_ZNSt12_Vector_baseISt8functionIFSt6vectorIlSaIlEES3_EESaIS5_EED2Ev
	nop
	leave
	.cfi_def_cfa 7, 8
	ret
	.cfi_endproc
.LFE4578:
	.section	.gcc_except_table
.LLSDA4578:
	.byte	0xff
	.byte	0xff
	.byte	0x1
	.uleb128 .LLSDACSE4578-.LLSDACSB4578
.LLSDACSB4578:
.LLSDACSE4578:
	.section	.text._ZNSt6vectorISt8functionIFS_IlSaIlEES2_EESaIS4_EED2Ev,"axG",@progbits,_ZNSt6vectorISt8functionIFS_IlSaIlEES2_EESaIS4_EED5Ev,comdat
	.size	_ZNSt6vectorISt8functionIFS_IlSaIlEES2_EESaIS4_EED2Ev, .-_ZNSt6vectorISt8functionIFS_IlSaIlEES2_EESaIS4_EED2Ev
	.weak	_ZNSt6vectorISt8functionIFS_IlSaIlEES2_EESaIS4_EED1Ev
	.set	_ZNSt6vectorISt8functionIFS_IlSaIlEES2_EESaIS4_EED1Ev,_ZNSt6vectorISt8functionIFS_IlSaIlEES2_EESaIS4_EED2Ev
	.section	.text._ZNSt6vectorISt8functionIFS_IlSaIlEES2_EESaIS4_EEC2ERKS6_,"axG",@progbits,_ZNSt6vectorISt8functionIFS_IlSaIlEES2_EESaIS4_EEC5ERKS6_,comdat
	.align 2
	.weak	_ZNSt6vectorISt8functionIFS_IlSaIlEES2_EESaIS4_EEC2ERKS6_
	.type	_ZNSt6vectorISt8functionIFS_IlSaIlEES2_EESaIS4_EEC2ERKS6_, @function
_ZNSt6vectorISt8functionIFS_IlSaIlEES2_EESaIS4_EEC2ERKS6_:
.LFB4581:
	.cfi_startproc
	.cfi_personality 0x9b,DW.ref.__gxx_personality_v0
	.cfi_lsda 0x1b,.LLSDA4581
	pushq	%rbp
	.cfi_def_cfa_offset 16
	.cfi_offset 6, -16
	movq	%rsp, %rbp
	.cfi_def_cfa_register 6
	pushq	%r13
	pushq	%r12
	pushq	%rbx
	subq	$88, %rsp
	.cfi_offset 13, -24
	.cfi_offset 12, -32
	.cfi_offset 3, -40
	movq	%rdi, -104(%rbp)
	movq	%rsi, -112(%rbp)
	movq	%fs:40, %rax
	movq	%rax, -40(%rbp)
	xorl	%eax, %eax
	movq	-104(%rbp), %rbx
	movq	-112(%rbp), %rax
	movq	%rax, %rdi
	call	_ZNKSt12_Vector_baseISt8functionIFSt6vectorIlSaIlEES3_EESaIS5_EE19_M_get_Tp_allocatorEv
	movq	%rax, -88(%rbp)
	leaq	-89(%rbp), %rax
	movq	-88(%rbp), %rdx
	movq	%rdx, -80(%rbp)
	movq	%rax, -72(%rbp)
	movq	-80(%rbp), %rax
	movq	%rax, -64(%rbp)
	movq	-72(%rbp), %rax
	movq	%rax, -56(%rbp)
	movq	-64(%rbp), %rax
	movq	%rax, -48(%rbp)
	nop
	nop
	nop
	nop
	movq	-112(%rbp), %rax
	movq	%rax, %rdi
	call	_ZNKSt6vectorISt8functionIFS_IlSaIlEES2_EESaIS4_EE4sizeEv
	movq	%rax, %rcx
	leaq	-89(%rbp), %rax
	movq	%rax, %rdx
	movq	%rcx, %rsi
	movq	%rbx, %rdi
.LEHB155:
	call	_ZNSt12_Vector_baseISt8functionIFSt6vectorIlSaIlEES3_EESaIS5_EEC2EmRKS6_
.LEHE155:
	nop
	movq	-104(%rbp), %rax
	movq	%rax, %rdi
	call	_ZNSt12_Vector_baseISt8functionIFSt6vectorIlSaIlEES3_EESaIS5_EE19_M_get_Tp_allocatorEv
	movq	%rax, %r13
	movq	-104(%rbp), %rax
	movq	(%rax), %rbx
	movq	-112(%rbp), %rax
	movq	%rax, %rdi
	call	_ZNKSt6vectorISt8functionIFS_IlSaIlEES2_EESaIS4_EE3endEv
	movq	%rax, %r12
	movq	-112(%rbp), %rax
	movq	%rax, %rdi
	call	_ZNKSt6vectorISt8functionIFS_IlSaIlEES2_EESaIS4_EE5beginEv
	movq	%r13, %rcx
	movq	%rbx, %rdx
	movq	%r12, %rsi
	movq	%rax, %rdi
.LEHB156:
	call	_ZSt22__uninitialized_copy_aIN9__gnu_cxx17__normal_iteratorIPKSt8functionIFSt6vectorIlSaIlEES5_EES3_IS7_SaIS7_EEEEPS7_S7_ET0_T_SF_SE_RSaIT1_E
.LEHE156:
	movq	-104(%rbp), %rdx
	movq	%rax, 8(%rdx)
	nop
	movq	-40(%rbp), %rax
	subq	%fs:40, %rax
	je	.L663
	jmp	.L665
.L664:
	movq	%rax, %rbx
	movq	-104(%rbp), %rax
	movq	%rax, %rdi
	call	_ZNSt12_Vector_baseISt8functionIFSt6vectorIlSaIlEES3_EESaIS5_EED2Ev
	movq	%rbx, %rax
	movq	-40(%rbp), %rdx
	subq	%fs:40, %rdx
	je	.L662
	call	__stack_chk_fail@PLT
.L662:
	movq	%rax, %rdi
.LEHB157:
	call	_Unwind_Resume@PLT
.LEHE157:
.L665:
	call	__stack_chk_fail@PLT
.L663:
	addq	$88, %rsp
	popq	%rbx
	popq	%r12
	popq	%r13
	popq	%rbp
	.cfi_def_cfa 7, 8
	ret
	.cfi_endproc
.LFE4581:
	.section	.gcc_except_table
.LLSDA4581:
	.byte	0xff
	.byte	0xff
	.byte	0x1
	.uleb128 .LLSDACSE4581-.LLSDACSB4581
.LLSDACSB4581:
	.uleb128 .LEHB155-.LFB4581
	.uleb128 .LEHE155-.LEHB155
	.uleb128 0
	.uleb128 0
	.uleb128 .LEHB156-.LFB4581
	.uleb128 .LEHE156-.LEHB156
	.uleb128 .L664-.LFB4581
	.uleb128 0
	.uleb128 .LEHB157-.LFB4581
	.uleb128 .LEHE157-.LEHB157
	.uleb128 0
	.uleb128 0
.LLSDACSE4581:
	.section	.text._ZNSt6vectorISt8functionIFS_IlSaIlEES2_EESaIS4_EEC2ERKS6_,"axG",@progbits,_ZNSt6vectorISt8functionIFS_IlSaIlEES2_EESaIS4_EEC5ERKS6_,comdat
	.size	_ZNSt6vectorISt8functionIFS_IlSaIlEES2_EESaIS4_EEC2ERKS6_, .-_ZNSt6vectorISt8functionIFS_IlSaIlEES2_EESaIS4_EEC2ERKS6_
	.weak	_ZNSt6vectorISt8functionIFS_IlSaIlEES2_EESaIS4_EEC1ERKS6_
	.set	_ZNSt6vectorISt8functionIFS_IlSaIlEES2_EESaIS4_EEC1ERKS6_,_ZNSt6vectorISt8functionIFS_IlSaIlEES2_EESaIS4_EEC2ERKS6_
	.section	.text._ZN2fp7composeISt6vectorISt8functionIFS1_IlSaIlEES4_EESaIS6_EES4_EET0_T_S9_,"axG",@progbits,_ZN2fp7composeISt6vectorISt8functionIFS1_IlSaIlEES4_EESaIS6_EES4_EET0_T_S9_,comdat
	.weak	_ZN2fp7composeISt6vectorISt8functionIFS1_IlSaIlEES4_EESaIS6_EES4_EET0_T_S9_
	.type	_ZN2fp7composeISt6vectorISt8functionIFS1_IlSaIlEES4_EESaIS6_EES4_EET0_T_S9_, @function
_ZN2fp7composeISt6vectorISt8functionIFS1_IlSaIlEES4_EESaIS6_EES4_EET0_T_S9_:
.LFB4583:
	.cfi_startproc
	.cfi_personality 0x9b,DW.ref.__gxx_personality_v0
	.cfi_lsda 0x1b,.LLSDA4583
	pushq	%rbp
	.cfi_def_cfa_offset 16
	.cfi_offset 6, -16
	movq	%rsp, %rbp
	.cfi_def_cfa_register 6
	pushq	%rbx
	subq	$104, %rsp
	.cfi_offset 3, -24
	movq	%rdi, -88(%rbp)
	movq	%rsi, -96(%rbp)
	movq	%rdx, -104(%rbp)
	movq	%fs:40, %rax
	movq	%rax, -24(%rbp)
	xorl	%eax, %eax
	movq	-104(%rbp), %rdx
	leaq	-48(%rbp), %rax
	movq	%rdx, %rsi
	movq	%rax, %rdi
.LEHB158:
	call	_ZNSt6vectorIlSaIlEEC1ERKS1_
.LEHE158:
	movq	-96(%rbp), %rdx
	leaq	-80(%rbp), %rax
	movq	%rdx, %rsi
	movq	%rax, %rdi
.LEHB159:
	call	_ZNSt6vectorISt8functionIFS_IlSaIlEES2_EESaIS4_EEC1ERKS6_
.LEHE159:
	movq	-88(%rbp), %rax
	leaq	-48(%rbp), %rdx
	leaq	-80(%rbp), %rcx
	movq	%rcx, %rsi
	movq	%rax, %rdi
.LEHB160:
	call	_ZN2fp6reduceIZNS_7composeISt6vectorISt8functionIFS2_IlSaIlEES5_EESaIS7_EES5_EET0_T_SA_EUlS5_SB_E_S9_S5_EET1_SB_SA_SD_
.LEHE160:
	leaq	-80(%rbp), %rax
	movq	%rax, %rdi
	call	_ZNSt6vectorISt8functionIFS_IlSaIlEES2_EESaIS4_EED1Ev
	leaq	-48(%rbp), %rax
	movq	%rax, %rdi
	call	_ZNSt6vectorIlSaIlEED1Ev
	movq	-24(%rbp), %rax
	subq	%fs:40, %rax
	je	.L671
	jmp	.L674
.L673:
	movq	%rax, %rbx
	leaq	-80(%rbp), %rax
	movq	%rax, %rdi
	call	_ZNSt6vectorISt8functionIFS_IlSaIlEES2_EESaIS4_EED1Ev
	jmp	.L669
.L672:
	movq	%rax, %rbx
.L669:
	leaq	-48(%rbp), %rax
	movq	%rax, %rdi
	call	_ZNSt6vectorIlSaIlEED1Ev
	movq	%rbx, %rax
	movq	-24(%rbp), %rdx
	subq	%fs:40, %rdx
	je	.L670
	call	__stack_chk_fail@PLT
.L670:
	movq	%rax, %rdi
.LEHB161:
	call	_Unwind_Resume@PLT
.LEHE161:
.L674:
	call	__stack_chk_fail@PLT
.L671:
	movq	-88(%rbp), %rax
	movq	-8(%rbp), %rbx
	leave
	.cfi_def_cfa 7, 8
	ret
	.cfi_endproc
.LFE4583:
	.section	.gcc_except_table
.LLSDA4583:
	.byte	0xff
	.byte	0xff
	.byte	0x1
	.uleb128 .LLSDACSE4583-.LLSDACSB4583
.LLSDACSB4583:
	.uleb128 .LEHB158-.LFB4583
	.uleb128 .LEHE158-.LEHB158
	.uleb128 0
	.uleb128 0
	.uleb128 .LEHB159-.LFB4583
	.uleb128 .LEHE159-.LEHB159
	.uleb128 .L672-.LFB4583
	.uleb128 0
	.uleb128 .LEHB160-.LFB4583
	.uleb128 .LEHE160-.LEHB160
	.uleb128 .L673-.LFB4583
	.uleb128 0
	.uleb128 .LEHB161-.LFB4583
	.uleb128 .LEHE161-.LEHB161
	.uleb128 0
	.uleb128 0
.LLSDACSE4583:
	.section	.text._ZN2fp7composeISt6vectorISt8functionIFS1_IlSaIlEES4_EESaIS6_EES4_EET0_T_S9_,"axG",@progbits,_ZN2fp7composeISt6vectorISt8functionIFS1_IlSaIlEES4_EESaIS6_EES4_EET0_T_S9_,comdat
	.size	_ZN2fp7composeISt6vectorISt8functionIFS1_IlSaIlEES4_EESaIS6_EES4_EET0_T_S9_, .-_ZN2fp7composeISt6vectorISt8functionIFS1_IlSaIlEES4_EESaIS6_EES4_EET0_T_S9_
	.section	.text._ZNSt6vectorIlSaIlEE3endEv,"axG",@progbits,_ZNSt6vectorIlSaIlEE3endEv,comdat
	.align 2
	.weak	_ZNSt6vectorIlSaIlEE3endEv
	.type	_ZNSt6vectorIlSaIlEE3endEv, @function
_ZNSt6vectorIlSaIlEE3endEv:
.LFB4585:
	.cfi_startproc
	pushq	%rbp
	.cfi_def_cfa_offset 16
	.cfi_offset 6, -16
	movq	%rsp, %rbp
	.cfi_def_cfa_register 6
	subq	$32, %rsp
	movq	%rdi, -24(%rbp)
	movq	%fs:40, %rax
	movq	%rax, -8(%rbp)
	xorl	%eax, %eax
	movq	-24(%rbp), %rax
	leaq	8(%rax), %rdx
	leaq	-16(%rbp), %rax
	movq	%rdx, %rsi
	movq	%rax, %rdi
	call	_ZN9__gnu_cxx17__normal_iteratorIPlSt6vectorIlSaIlEEEC1ERKS1_
	movq	-16(%rbp), %rax
	movq	-8(%rbp), %rdx
	subq	%fs:40, %rdx
	je	.L677
	call	__stack_chk_fail@PLT
.L677:
	leave
	.cfi_def_cfa 7, 8
	ret
	.cfi_endproc
.LFE4585:
	.size	_ZNSt6vectorIlSaIlEE3endEv, .-_ZNSt6vectorIlSaIlEE3endEv
	.section	.text._ZN9__gnu_cxx17__normal_iteratorIPlSt6vectorIlSaIlEEEppEv,"axG",@progbits,_ZN9__gnu_cxx17__normal_iteratorIPlSt6vectorIlSaIlEEEppEv,comdat
	.align 2
	.weak	_ZN9__gnu_cxx17__normal_iteratorIPlSt6vectorIlSaIlEEEppEv
	.type	_ZN9__gnu_cxx17__normal_iteratorIPlSt6vectorIlSaIlEEEppEv, @function
_ZN9__gnu_cxx17__normal_iteratorIPlSt6vectorIlSaIlEEEppEv:
.LFB4586:
	.cfi_startproc
	pushq	%rbp
	.cfi_def_cfa_offset 16
	.cfi_offset 6, -16
	movq	%rsp, %rbp
	.cfi_def_cfa_register 6
	movq	%rdi, -8(%rbp)
	movq	-8(%rbp), %rax
	movq	(%rax), %rax
	leaq	8(%rax), %rdx
	movq	-8(%rbp), %rax
	movq	%rdx, (%rax)
	movq	-8(%rbp), %rax
	popq	%rbp
	.cfi_def_cfa 7, 8
	ret
	.cfi_endproc
.LFE4586:
	.size	_ZN9__gnu_cxx17__normal_iteratorIPlSt6vectorIlSaIlEEEppEv, .-_ZN9__gnu_cxx17__normal_iteratorIPlSt6vectorIlSaIlEEEppEv
	.section	.text._ZN4util5printIPKcJlEEEvT_DpT0_,"axG",@progbits,_ZN4util5printIPKcJlEEEvT_DpT0_,comdat
	.weak	_ZN4util5printIPKcJlEEEvT_DpT0_
	.type	_ZN4util5printIPKcJlEEEvT_DpT0_, @function
_ZN4util5printIPKcJlEEEvT_DpT0_:
.LFB4587:
	.cfi_startproc
	pushq	%rbp
	.cfi_def_cfa_offset 16
	.cfi_offset 6, -16
	movq	%rsp, %rbp
	.cfi_def_cfa_register 6
	subq	$16, %rsp
	movq	%rdi, -8(%rbp)
	movq	%rsi, -16(%rbp)
	movq	-8(%rbp), %rax
	movq	%rax, %rsi
	leaq	_ZSt4cout(%rip), %rax
	movq	%rax, %rdi
	call	_ZStlsISt11char_traitsIcEERSt13basic_ostreamIcT_ES5_PKc@PLT
	movl	$32, %esi
	movq	%rax, %rdi
	call	_ZStlsISt11char_traitsIcEERSt13basic_ostreamIcT_ES5_c@PLT
	movq	-16(%rbp), %rax
	movq	%rax, %rdi
	call	_ZN4util5printIlJEEEvT_DpT0_
	nop
	leave
	.cfi_def_cfa 7, 8
	ret
	.cfi_endproc
.LFE4587:
	.size	_ZN4util5printIPKcJlEEEvT_DpT0_, .-_ZN4util5printIPKcJlEEEvT_DpT0_
	.section	.text._ZSt7forwardIiEOT_RNSt16remove_referenceIS0_E4typeE,"axG",@progbits,_ZSt7forwardIiEOT_RNSt16remove_referenceIS0_E4typeE,comdat
	.weak	_ZSt7forwardIiEOT_RNSt16remove_referenceIS0_E4typeE
	.type	_ZSt7forwardIiEOT_RNSt16remove_referenceIS0_E4typeE, @function
_ZSt7forwardIiEOT_RNSt16remove_referenceIS0_E4typeE:
.LFB4710:
	.cfi_startproc
	pushq	%rbp
	.cfi_def_cfa_offset 16
	.cfi_offset 6, -16
	movq	%rsp, %rbp
	.cfi_def_cfa_register 6
	movq	%rdi, -8(%rbp)
	movq	-8(%rbp), %rax
	popq	%rbp
	.cfi_def_cfa 7, 8
	ret
	.cfi_endproc
.LFE4710:
	.size	_ZSt7forwardIiEOT_RNSt16remove_referenceIS0_E4typeE, .-_ZSt7forwardIiEOT_RNSt16remove_referenceIS0_E4typeE
	.section	.text._ZNSt12_Vector_baseIiSaIiEE13_M_deallocateEPim,"axG",@progbits,_ZNSt12_Vector_baseIiSaIiEE13_M_deallocateEPim,comdat
	.align 2
	.weak	_ZNSt12_Vector_baseIiSaIiEE13_M_deallocateEPim
	.type	_ZNSt12_Vector_baseIiSaIiEE13_M_deallocateEPim, @function
_ZNSt12_Vector_baseIiSaIiEE13_M_deallocateEPim:
.LFB4713:
	.cfi_startproc
	pushq	%rbp
	.cfi_def_cfa_offset 16
	.cfi_offset 6, -16
	movq	%rsp, %rbp
	.cfi_def_cfa_register 6
	subq	$80, %rsp
	movq	%rdi, -56(%rbp)
	movq	%rsi, -64(%rbp)
	movq	%rdx, -72(%rbp)
	cmpq	$0, -64(%rbp)
	je	.L687
